

Microchip MPLAB XC8 Assembler V2.30 build 20200825195618 
                                                                                               Wed Jun 22 11:05:33 2022

Microchip MPLAB XC8 C Compiler v2.30 (Free license) build 20200825195618 Og1 
     1                           	processor	16F877A
     2                           	pagewidth 120
     3                           	opt	flic
     4                           	psect	cinit,global,class=CODE,merge=1,delta=2
     5                           	psect	cstackBANK1,global,class=BANK1,space=1,delta=1,noexec
     6                           	psect	cstackCOMMON,global,class=COMMON,space=1,delta=1,noexec
     7                           	psect	cstackBANK0,global,class=BANK0,space=1,delta=1,noexec
     8                           	psect	maintext,global,class=CODE,split=1,delta=2
     9                           	psect	text1,local,class=CODE,merge=1,delta=2
    10                           	psect	text2,local,class=CODE,merge=1,delta=2
    11                           	psect	text3,local,class=CODE,merge=1,delta=2,group=1
    12                           	psect	text4,local,class=CODE,merge=1,delta=2,group=1
    13                           	psect	text5,local,class=CODE,merge=1,delta=2,group=1
    14                           	psect	text6,local,class=CODE,merge=1,delta=2,group=1
    15                           	psect	text7,local,class=CODE,merge=1,delta=2,group=1
    16                           	psect	config,global,abs,ovrld,class=CONFIG,space=4,delta=2,noexec
    17                           	dabs	1,0x7E,2
    18  0000                     
    19                           ; Version 2.20
    20                           ; Generated 12/02/2020 GMT
    21                           ; 
    22                           ; Copyright © 2020, Microchip Technology Inc. and its subsidiaries ("Microchip")
    23                           ; All rights reserved.
    24                           ; 
    25                           ; This software is developed by Microchip Technology Inc. and its subsidiaries ("Microch
      +                          ip").
    26                           ; 
    27                           ; Redistribution and use in source and binary forms, with or without modification, are
    28                           ; permitted provided that the following conditions are met:
    29                           ; 
    30                           ;     1. Redistributions of source code must retain the above copyright notice, this lis
      +                          t of
    31                           ;        conditions and the following disclaimer.
    32                           ; 
    33                           ;     2. Redistributions in binary form must reproduce the above copyright notice, this 
      +                          list
    34                           ;        of conditions and the following disclaimer in the documentation and/or other
    35                           ;        materials provided with the distribution.
    36                           ; 
    37                           ;     3. Microchip's name may not be used to endorse or promote products derived from th
      +                          is
    38                           ;        software without specific prior written permission.
    39                           ; 
    40                           ; THIS SOFTWARE IS PROVIDED BY MICROCHIP "AS IS" AND ANY EXPRESS OR IMPLIED WARRANTIES,
    41                           ; INCLUDING, BUT NOT LIMITED TO, THE IMPLIED WARRANTIES OF MERCHANTABILITY AND FITNESS F
      +                          OR
    42                           ; PURPOSE ARE DISCLAIMED.  IN NO EVENT SHALL MICROCHIP BE LIABLE FOR ANY DIRECT, INDIREC
      +                          T,
    43                           ; INCIDENTAL, SPECIAL, EXEMPLARY, OR CONSEQUENTIAL DAMAGES (INCLUDING BUT NOT LIMITED TO
    44                           ; PROCUREMENT OF SUBSTITUTE GOODS OR SERVICES; LOSS OF USE, DATA OR PROFITS; OR BUSINESS
    45                           ; INTERRUPTION) HOWSOEVER CAUSED AND ON ANY THEORY OF LIABILITY, WHETHER IN CONTRACT, ST
      +                          RICT
    46                           ; LIABILITY, OR TORT (INCLUDING NEGLIGENCE OR OTHERWISE) ARISING IN ANY WAY OUT OF THE U
      +                          SE OF
    47                           ; THIS SOFTWARE, EVEN IF ADVISED OF THE POSSIBILITY OF SUCH DAMAGE.
    48                           ; 
    49                           ; 
    50                           ; Code-generator required, PIC16F877A Definitions
    51                           ; 
    52                           ; SFR Addresses
    53  0000                     	;# 
    54  0001                     	;# 
    55  0002                     	;# 
    56  0003                     	;# 
    57  0004                     	;# 
    58  0005                     	;# 
    59  0006                     	;# 
    60  0007                     	;# 
    61  0008                     	;# 
    62  0009                     	;# 
    63  000A                     	;# 
    64  000B                     	;# 
    65  000C                     	;# 
    66  000D                     	;# 
    67  000E                     	;# 
    68  000E                     	;# 
    69  000F                     	;# 
    70  0010                     	;# 
    71  0011                     	;# 
    72  0012                     	;# 
    73  0013                     	;# 
    74  0014                     	;# 
    75  0015                     	;# 
    76  0015                     	;# 
    77  0016                     	;# 
    78  0017                     	;# 
    79  0018                     	;# 
    80  0019                     	;# 
    81  001A                     	;# 
    82  001B                     	;# 
    83  001B                     	;# 
    84  001C                     	;# 
    85  001D                     	;# 
    86  001E                     	;# 
    87  001F                     	;# 
    88  0081                     	;# 
    89  0085                     	;# 
    90  0086                     	;# 
    91  0087                     	;# 
    92  0088                     	;# 
    93  0089                     	;# 
    94  008C                     	;# 
    95  008D                     	;# 
    96  008E                     	;# 
    97  0091                     	;# 
    98  0092                     	;# 
    99  0093                     	;# 
   100  0094                     	;# 
   101  0098                     	;# 
   102  0099                     	;# 
   103  009C                     	;# 
   104  009D                     	;# 
   105  009E                     	;# 
   106  009F                     	;# 
   107  010C                     	;# 
   108  010D                     	;# 
   109  010E                     	;# 
   110  010F                     	;# 
   111  018C                     	;# 
   112  018D                     	;# 
   113  0000                     	;# 
   114  0001                     	;# 
   115  0002                     	;# 
   116  0003                     	;# 
   117  0004                     	;# 
   118  0005                     	;# 
   119  0006                     	;# 
   120  0007                     	;# 
   121  0008                     	;# 
   122  0009                     	;# 
   123  000A                     	;# 
   124  000B                     	;# 
   125  000C                     	;# 
   126  000D                     	;# 
   127  000E                     	;# 
   128  000E                     	;# 
   129  000F                     	;# 
   130  0010                     	;# 
   131  0011                     	;# 
   132  0012                     	;# 
   133  0013                     	;# 
   134  0014                     	;# 
   135  0015                     	;# 
   136  0015                     	;# 
   137  0016                     	;# 
   138  0017                     	;# 
   139  0018                     	;# 
   140  0019                     	;# 
   141  001A                     	;# 
   142  001B                     	;# 
   143  001B                     	;# 
   144  001C                     	;# 
   145  001D                     	;# 
   146  001E                     	;# 
   147  001F                     	;# 
   148  0081                     	;# 
   149  0085                     	;# 
   150  0086                     	;# 
   151  0087                     	;# 
   152  0088                     	;# 
   153  0089                     	;# 
   154  008C                     	;# 
   155  008D                     	;# 
   156  008E                     	;# 
   157  0091                     	;# 
   158  0092                     	;# 
   159  0093                     	;# 
   160  0094                     	;# 
   161  0098                     	;# 
   162  0099                     	;# 
   163  009C                     	;# 
   164  009D                     	;# 
   165  009E                     	;# 
   166  009F                     	;# 
   167  010C                     	;# 
   168  010D                     	;# 
   169  010E                     	;# 
   170  010F                     	;# 
   171  018C                     	;# 
   172  018D                     	;# 
   173  001B                     _CCPR2L	set	27
   174  001D                     _CCP2CON	set	29
   175  0015                     _CCPR1L	set	21
   176  0017                     _CCP1CON	set	23
   177  0092                     _TMR2ON	set	146
   178  0092                     _PR2	set	146
   179  043A                     _TRISC2	set	1082
   180  0439                     _TRISC1	set	1081
   181                           
   182                           	psect	cinit
   183  07FC                     start_initialization:	
   184                           ; #config settings
   185                           
   186  07FC                     __initialization:
   187  07FC                     end_of_initialization:	
   188                           ;End of C runtime variable initialization code
   189                           
   190  07FC                     __end_of__initialization:
   191  07FC  0183               	clrf	3
   192  07FD  120A  118A  2808   	ljmp	_main	;jump to C main() function
   193                           
   194                           	psect	cstackBANK1
   195  00A0                     __pcstackBANK1:
   196  00A0                     ?_startPWM1:
   197  00A0                     ?_startPWM2:	
   198                           ; 1 bytes @ 0x0
   199                           
   200  00A0                     startPWM1@freq:	
   201                           ; 1 bytes @ 0x0
   202                           
   203  00A0                     startPWM2@freq:	
   204                           ; 4 bytes @ 0x0
   205                           
   206                           
   207                           ; 4 bytes @ 0x0
   208  00A0                     	ds	4
   209  00A4                     startPWM1@duty:
   210  00A4                     startPWM2@duty:	
   211                           ; 2 bytes @ 0x4
   212                           
   213                           
   214                           ; 2 bytes @ 0x4
   215  00A4                     	ds	2
   216  00A6                     startPWM1@periodt:
   217  00A6                     startPWM2@periodt:	
   218                           ; 4 bytes @ 0x6
   219                           
   220                           
   221                           ; 4 bytes @ 0x6
   222  00A6                     	ds	4
   223                           
   224                           	psect	cstackCOMMON
   225  0070                     __pcstackCOMMON:
   226  0070                     ?_main:
   227  0070                     ?__Umul8_16:	
   228                           ; 1 bytes @ 0x0
   229                           
   230  0070                     __Umul8_16@multiplicand:	
   231                           ; 2 bytes @ 0x0
   232                           
   233                           
   234                           ; 1 bytes @ 0x0
   235  0070                     	ds	2
   236  0072                     ??__Umul8_16:
   237                           
   238                           ; 1 bytes @ 0x2
   239  0072                     	ds	2
   240  0074                     __Umul8_16@product:
   241                           
   242                           ; 2 bytes @ 0x4
   243  0074                     	ds	2
   244  0076                     __Umul8_16@word_mpld:
   245                           
   246                           ; 2 bytes @ 0x6
   247  0076                     	ds	2
   248  0078                     __Umul8_16@multiplier:
   249                           
   250                           ; 1 bytes @ 0x8
   251  0078                     	ds	1
   252  0079                     ??___flmul:
   253                           
   254                           ; 1 bytes @ 0x9
   255  0079                     	ds	5
   256  007E                     ??_startPWM1:
   257  007E                     ??_startPWM2:	
   258                           ; 1 bytes @ 0xE
   259                           
   260  007E                     ??_main:	
   261                           ; 1 bytes @ 0xE
   262                           
   263                           
   264                           	psect	cstackBANK0
   265  0020                     __pcstackBANK0:	
   266                           ; 1 bytes @ 0xE
   267                           
   268  0020                     ?___flmul:
   269  0020                     ___flmul@b:	
   270                           ; 4 bytes @ 0x0
   271                           
   272                           
   273                           ; 4 bytes @ 0x0
   274  0020                     	ds	4
   275  0024                     ___flmul@a:
   276                           
   277                           ; 4 bytes @ 0x4
   278  0024                     	ds	4
   279  0028                     ___flmul@sign:
   280                           
   281                           ; 1 bytes @ 0x8
   282  0028                     	ds	1
   283  0029                     ___flmul@grs:
   284                           
   285                           ; 4 bytes @ 0x9
   286  0029                     	ds	4
   287  002D                     ___flmul@aexp:
   288                           
   289                           ; 1 bytes @ 0xD
   290  002D                     	ds	1
   291  002E                     ___flmul@bexp:
   292                           
   293                           ; 1 bytes @ 0xE
   294  002E                     	ds	1
   295  002F                     ___flmul@prod:
   296                           
   297                           ; 4 bytes @ 0xF
   298  002F                     	ds	4
   299  0033                     ___flmul@temp:
   300                           
   301                           ; 2 bytes @ 0x13
   302  0033                     	ds	2
   303  0035                     ?___fldiv:
   304  0035                     ___fldiv@a:	
   305                           ; 4 bytes @ 0x15
   306                           
   307                           
   308                           ; 4 bytes @ 0x15
   309  0035                     	ds	4
   310  0039                     ___fldiv@b:
   311                           
   312                           ; 4 bytes @ 0x19
   313  0039                     	ds	4
   314  003D                     ??___fldiv:
   315                           
   316                           ; 1 bytes @ 0x1D
   317  003D                     	ds	5
   318  0042                     ___fldiv@rem:
   319                           
   320                           ; 4 bytes @ 0x22
   321  0042                     	ds	4
   322  0046                     ___fldiv@sign:
   323                           
   324                           ; 1 bytes @ 0x26
   325  0046                     	ds	1
   326  0047                     ___fldiv@new_exp:
   327                           
   328                           ; 2 bytes @ 0x27
   329  0047                     	ds	2
   330  0049                     ___fldiv@grs:
   331                           
   332                           ; 4 bytes @ 0x29
   333  0049                     	ds	4
   334  004D                     ___fldiv@bexp:
   335                           
   336                           ; 1 bytes @ 0x2D
   337  004D                     	ds	1
   338  004E                     ___fldiv@aexp:
   339                           
   340                           ; 1 bytes @ 0x2E
   341  004E                     	ds	1
   342  004F                     ?___fladd:
   343  004F                     ___fladd@b:	
   344                           ; 4 bytes @ 0x2F
   345                           
   346                           
   347                           ; 4 bytes @ 0x2F
   348  004F                     	ds	4
   349  0053                     ___fladd@a:
   350                           
   351                           ; 4 bytes @ 0x33
   352  0053                     	ds	4
   353  0057                     ??___fladd:
   354                           
   355                           ; 1 bytes @ 0x37
   356  0057                     	ds	8
   357  005F                     ___fladd@signs:
   358                           
   359                           ; 1 bytes @ 0x3F
   360  005F                     	ds	1
   361  0060                     ___fladd@aexp:
   362                           
   363                           ; 1 bytes @ 0x40
   364  0060                     	ds	1
   365  0061                     ___fladd@bexp:
   366                           
   367                           ; 1 bytes @ 0x41
   368  0061                     	ds	1
   369  0062                     ___fladd@grs:
   370                           
   371                           ; 1 bytes @ 0x42
   372  0062                     	ds	1
   373  0063                     ?___fltol:
   374  0063                     ___fltol@f1:	
   375                           ; 4 bytes @ 0x43
   376                           
   377                           
   378                           ; 4 bytes @ 0x43
   379  0063                     	ds	4
   380  0067                     ??___fltol:
   381                           
   382                           ; 1 bytes @ 0x47
   383  0067                     	ds	5
   384  006C                     ___fltol@sign1:
   385                           
   386                           ; 1 bytes @ 0x4C
   387  006C                     	ds	1
   388  006D                     ___fltol@exp1:
   389                           
   390                           ; 1 bytes @ 0x4D
   391  006D                     	ds	1
   392                           
   393                           	psect	maintext
   394  0008                     __pmaintext:	
   395 ;;
   396 ;;Main: autosize = 0, tempsize = 0, incstack = 0, save=0
   397 ;;
   398 ;; *************** function _main *****************
   399 ;; Defined at:
   400 ;;		line 29 in file "batch.c"
   401 ;; Parameters:    Size  Location     Type
   402 ;;		None
   403 ;; Auto vars:     Size  Location     Type
   404 ;;		None
   405 ;; Return value:  Size  Location     Type
   406 ;;                  1    wreg      void 
   407 ;; Registers used:
   408 ;;		wreg, status,2, status,0, btemp+1, pclath, cstack
   409 ;; Tracked objects:
   410 ;;		On entry : B00/0
   411 ;;		On exit  : 0/0
   412 ;;		Unchanged: 0/0
   413 ;; Data sizes:     COMMON   BANK0   BANK1   BANK3   BANK2
   414 ;;      Params:         0       0       0       0       0
   415 ;;      Locals:         0       0       0       0       0
   416 ;;      Temps:          0       0       0       0       0
   417 ;;      Totals:         0       0       0       0       0
   418 ;;Total ram usage:        0 bytes
   419 ;; Hardware stack levels required when called:    3
   420 ;; This function calls:
   421 ;;		_startPWM1
   422 ;;		_startPWM2
   423 ;; This function is called by:
   424 ;;		Startup code after reset
   425 ;; This function uses a non-reentrant model
   426 ;;
   427                           
   428                           
   429                           ;psect for function _main
   430  0008                     _main:
   431  0008                     l1710:	
   432                           ;incstack = 0
   433                           ; Regs used in _main: [wreg+status,2+status,0+btemp+1+pclath+cstack]
   434                           
   435  0008  1683               	bsf	3,5	;RP0=1, select bank1
   436  0009  1303               	bcf	3,6	;RP1=0, select bank1
   437  000A  1087               	bcf	7,1	;volatile
   438  000B  1107               	bcf	7,2	;volatile
   439  000C                     l1712:
   440  000C  3045               	movlw	69
   441  000D  1683               	bsf	3,5	;RP0=1, select bank1
   442  000E  1303               	bcf	3,6	;RP1=0, select bank1
   443  000F  00A3               	movwf	(startPWM1@freq+3)^(0+128)
   444  0010  309C               	movlw	156
   445  0011  00A2               	movwf	(startPWM1@freq+2)^(0+128)
   446  0012  3040               	movlw	64
   447  0013  00A1               	movwf	(startPWM1@freq+1)^(0+128)
   448  0014  3000               	movlw	0
   449  0015  00A0               	movwf	startPWM1@freq^(0+128)
   450  0016  305A               	movlw	90
   451  0017  00A4               	movwf	startPWM1@duty^(0+128)
   452  0018  3000               	movlw	0
   453  0019  00A5               	movwf	(startPWM1@duty^(0+128)+1)
   454  001A  120A  158A  26A6  120A  118A  	fcall	_startPWM1
   455  001F  3044               	movlw	68
   456  0020  1683               	bsf	3,5	;RP0=1, select bank1
   457  0021  1303               	bcf	3,6	;RP1=0, select bank1
   458  0022  00A3               	movwf	(startPWM2@freq+3)^(0+128)
   459  0023  307A               	movlw	122
   460  0024  00A2               	movwf	(startPWM2@freq+2)^(0+128)
   461  0025  3000               	movlw	0
   462  0026  00A1               	movwf	(startPWM2@freq+1)^(0+128)
   463  0027  3000               	movlw	0
   464  0028  00A0               	movwf	startPWM2@freq^(0+128)
   465  0029  301E               	movlw	30
   466  002A  00A4               	movwf	startPWM2@duty^(0+128)
   467  002B  3000               	movlw	0
   468  002C  00A5               	movwf	(startPWM2@duty^(0+128)+1)
   469  002D  120A  158A  2753  120A  118A  	fcall	_startPWM2
   470  0032  280C               	goto	l1712
   471  0033  120A  118A  2800   	ljmp	start
   472  0036                     __end_of_main:
   473                           
   474                           	psect	text1
   475  0F53                     __ptext1:	
   476 ;; *************** function _startPWM2 *****************
   477 ;; Defined at:
   478 ;;		line 21 in file "batch.c"
   479 ;; Parameters:    Size  Location     Type
   480 ;;  freq            4    0[BANK1 ] float 
   481 ;;  duty            2    4[BANK1 ] int 
   482 ;; Auto vars:     Size  Location     Type
   483 ;;  periodt         4    6[BANK1 ] float 
   484 ;; Return value:  Size  Location     Type
   485 ;;                  1    wreg      void 
   486 ;; Registers used:
   487 ;;		wreg, status,2, status,0, btemp+1, pclath, cstack
   488 ;; Tracked objects:
   489 ;;		On entry : 0/0
   490 ;;		On exit  : 0/0
   491 ;;		Unchanged: 0/0
   492 ;; Data sizes:     COMMON   BANK0   BANK1   BANK3   BANK2
   493 ;;      Params:         0       0       6       0       0
   494 ;;      Locals:         0       0       4       0       0
   495 ;;      Temps:          0       0       0       0       0
   496 ;;      Totals:         0       0      10       0       0
   497 ;;Total ram usage:       10 bytes
   498 ;; Hardware stack levels used:    1
   499 ;; Hardware stack levels required when called:    2
   500 ;; This function calls:
   501 ;;		___fladd
   502 ;;		___fldiv
   503 ;;		___flmul
   504 ;;		___fltol
   505 ;; This function is called by:
   506 ;;		_main
   507 ;; This function uses a non-reentrant model
   508 ;;
   509                           
   510                           
   511                           ;psect for function _startPWM2
   512  0F53                     _startPWM2:
   513  0F53                     l1702:	
   514                           ;incstack = 0
   515                           ; Regs used in _startPWM2: [wreg+status,2+status,0+btemp+1+pclath+cstack]
   516                           
   517                           
   518                           ;batch.c: 22:         startPWM1(5000, 90);
   519  0F53  300F               	movlw	15
   520  0F54  1283               	bcf	3,5	;RP0=0, select bank0
   521  0F55  1303               	bcf	3,6	;RP1=0, select bank0
   522  0F56  009D               	movwf	29	;volatile
   523  0F57                     l1704:
   524                           
   525                           ;batch.c: 23:         startPWM2(1000, 30);
   526  0F57  1683               	bsf	3,5	;RP0=1, select bank1
   527  0F58  1303               	bcf	3,6	;RP1=0, select bank1
   528  0F59  0823               	movf	(startPWM2@freq+3)^(0+128),w
   529  0F5A  1283               	bcf	3,5	;RP0=0, select bank0
   530  0F5B  1303               	bcf	3,6	;RP1=0, select bank0
   531  0F5C  00B8               	movwf	___fldiv@a+3
   532  0F5D  1683               	bsf	3,5	;RP0=1, select bank1
   533  0F5E  1303               	bcf	3,6	;RP1=0, select bank1
   534  0F5F  0822               	movf	(startPWM2@freq+2)^(0+128),w
   535  0F60  1283               	bcf	3,5	;RP0=0, select bank0
   536  0F61  1303               	bcf	3,6	;RP1=0, select bank0
   537  0F62  00B7               	movwf	___fldiv@a+2
   538  0F63  1683               	bsf	3,5	;RP0=1, select bank1
   539  0F64  1303               	bcf	3,6	;RP1=0, select bank1
   540  0F65  0821               	movf	(startPWM2@freq+1)^(0+128),w
   541  0F66  1283               	bcf	3,5	;RP0=0, select bank0
   542  0F67  1303               	bcf	3,6	;RP1=0, select bank0
   543  0F68  00B6               	movwf	___fldiv@a+1
   544  0F69  1683               	bsf	3,5	;RP0=1, select bank1
   545  0F6A  1303               	bcf	3,6	;RP1=0, select bank1
   546  0F6B  0820               	movf	startPWM2@freq^(0+128),w
   547  0F6C  1283               	bcf	3,5	;RP0=0, select bank0
   548  0F6D  1303               	bcf	3,6	;RP1=0, select bank0
   549  0F6E  00B5               	movwf	___fldiv@a
   550  0F6F  303F               	movlw	63
   551  0F70  00BC               	movwf	___fldiv@b+3
   552  0F71  3080               	movlw	128
   553  0F72  00BB               	movwf	___fldiv@b+2
   554  0F73  3000               	movlw	0
   555  0F74  00BA               	movwf	___fldiv@b+1
   556  0F75  3000               	movlw	0
   557  0F76  00B9               	movwf	___fldiv@b
   558  0F77  120A  118A  2036  120A  158A  	fcall	___fldiv
   559  0F7C  1283               	bcf	3,5	;RP0=0, select bank0
   560  0F7D  1303               	bcf	3,6	;RP1=0, select bank0
   561  0F7E  0838               	movf	?___fldiv+3,w
   562  0F7F  1683               	bsf	3,5	;RP0=1, select bank1
   563  0F80  1303               	bcf	3,6	;RP1=0, select bank1
   564  0F81  00A9               	movwf	(startPWM2@periodt+3)^(0+128)
   565  0F82  1283               	bcf	3,5	;RP0=0, select bank0
   566  0F83  1303               	bcf	3,6	;RP1=0, select bank0
   567  0F84  0837               	movf	?___fldiv+2,w
   568  0F85  1683               	bsf	3,5	;RP0=1, select bank1
   569  0F86  1303               	bcf	3,6	;RP1=0, select bank1
   570  0F87  00A8               	movwf	(startPWM2@periodt+2)^(0+128)
   571  0F88  1283               	bcf	3,5	;RP0=0, select bank0
   572  0F89  1303               	bcf	3,6	;RP1=0, select bank0
   573  0F8A  0836               	movf	?___fldiv+1,w
   574  0F8B  1683               	bsf	3,5	;RP0=1, select bank1
   575  0F8C  1303               	bcf	3,6	;RP1=0, select bank1
   576  0F8D  00A7               	movwf	(startPWM2@periodt+1)^(0+128)
   577  0F8E  1283               	bcf	3,5	;RP0=0, select bank0
   578  0F8F  1303               	bcf	3,6	;RP1=0, select bank0
   579  0F90  0835               	movf	?___fldiv,w
   580  0F91  1683               	bsf	3,5	;RP0=1, select bank1
   581  0F92  1303               	bcf	3,6	;RP1=0, select bank1
   582  0F93  00A6               	movwf	startPWM2@periodt^(0+128)
   583  0F94                     l1706:
   584                           
   585                           ;batch.c: 24:     }
   586  0F94  0829               	movf	(startPWM2@periodt+3)^(0+128),w
   587  0F95  1283               	bcf	3,5	;RP0=0, select bank0
   588  0F96  1303               	bcf	3,6	;RP1=0, select bank0
   589  0F97  00A7               	movwf	___flmul@a+3
   590  0F98  1683               	bsf	3,5	;RP0=1, select bank1
   591  0F99  1303               	bcf	3,6	;RP1=0, select bank1
   592  0F9A  0828               	movf	(startPWM2@periodt+2)^(0+128),w
   593  0F9B  1283               	bcf	3,5	;RP0=0, select bank0
   594  0F9C  1303               	bcf	3,6	;RP1=0, select bank0
   595  0F9D  00A6               	movwf	___flmul@a+2
   596  0F9E  1683               	bsf	3,5	;RP0=1, select bank1
   597  0F9F  1303               	bcf	3,6	;RP1=0, select bank1
   598  0FA0  0827               	movf	(startPWM2@periodt+1)^(0+128),w
   599  0FA1  1283               	bcf	3,5	;RP0=0, select bank0
   600  0FA2  1303               	bcf	3,6	;RP1=0, select bank0
   601  0FA3  00A5               	movwf	___flmul@a+1
   602  0FA4  1683               	bsf	3,5	;RP0=1, select bank1
   603  0FA5  1303               	bcf	3,6	;RP1=0, select bank1
   604  0FA6  0826               	movf	startPWM2@periodt^(0+128),w
   605  0FA7  1283               	bcf	3,5	;RP0=0, select bank0
   606  0FA8  1303               	bcf	3,6	;RP1=0, select bank0
   607  0FA9  00A4               	movwf	___flmul@a
   608  0FAA  304B               	movlw	75
   609  0FAB  00A3               	movwf	___flmul@b+3
   610  0FAC  3098               	movlw	152
   611  0FAD  00A2               	movwf	___flmul@b+2
   612  0FAE  3096               	movlw	150
   613  0FAF  00A1               	movwf	___flmul@b+1
   614  0FB0  3080               	movlw	128
   615  0FB1  00A0               	movwf	___flmul@b
   616  0FB2  120A  118A  249B  120A  158A  	fcall	___flmul
   617  0FB7  1283               	bcf	3,5	;RP0=0, select bank0
   618  0FB8  1303               	bcf	3,6	;RP1=0, select bank0
   619  0FB9  0823               	movf	?___flmul+3,w
   620  0FBA  00BC               	movwf	___fldiv@b+3
   621  0FBB  0822               	movf	?___flmul+2,w
   622  0FBC  00BB               	movwf	___fldiv@b+2
   623  0FBD  0821               	movf	?___flmul+1,w
   624  0FBE  00BA               	movwf	___fldiv@b+1
   625  0FBF  0820               	movf	?___flmul,w
   626  0FC0  00B9               	movwf	___fldiv@b
   627  0FC1  3041               	movlw	65
   628  0FC2  00B8               	movwf	___fldiv@a+3
   629  0FC3  3080               	movlw	128
   630  0FC4  00B7               	movwf	___fldiv@a+2
   631  0FC5  3000               	movlw	0
   632  0FC6  00B6               	movwf	___fldiv@a+1
   633  0FC7  3000               	movlw	0
   634  0FC8  00B5               	movwf	___fldiv@a
   635  0FC9  120A  118A  2036  120A  158A  	fcall	___fldiv
   636  0FCE  1283               	bcf	3,5	;RP0=0, select bank0
   637  0FCF  1303               	bcf	3,6	;RP1=0, select bank0
   638  0FD0  0838               	movf	?___fldiv+3,w
   639  0FD1  00D6               	movwf	___fladd@a+3
   640  0FD2  0837               	movf	?___fldiv+2,w
   641  0FD3  00D5               	movwf	___fladd@a+2
   642  0FD4  0836               	movf	?___fldiv+1,w
   643  0FD5  00D4               	movwf	___fladd@a+1
   644  0FD6  0835               	movf	?___fldiv,w
   645  0FD7  00D3               	movwf	___fladd@a
   646  0FD8  30BF               	movlw	191
   647  0FD9  00D2               	movwf	___fladd@b+3
   648  0FDA  3080               	movlw	128
   649  0FDB  00D1               	movwf	___fladd@b+2
   650  0FDC  3000               	movlw	0
   651  0FDD  00D0               	movwf	___fladd@b+1
   652  0FDE  3000               	movlw	0
   653  0FDF  00CF               	movwf	___fladd@b
   654  0FE0  120A  118A  2213  120A  158A  	fcall	___fladd
   655  0FE5  1283               	bcf	3,5	;RP0=0, select bank0
   656  0FE6  1303               	bcf	3,6	;RP1=0, select bank0
   657  0FE7  0852               	movf	?___fladd+3,w
   658  0FE8  00E6               	movwf	___fltol@f1+3
   659  0FE9  0851               	movf	?___fladd+2,w
   660  0FEA  00E5               	movwf	___fltol@f1+2
   661  0FEB  0850               	movf	?___fladd+1,w
   662  0FEC  00E4               	movwf	___fltol@f1+1
   663  0FED  084F               	movf	?___fladd,w
   664  0FEE  00E3               	movwf	___fltol@f1
   665  0FEF  120A  158A  262A  120A  158A  	fcall	___fltol
   666  0FF4  1283               	bcf	3,5	;RP0=0, select bank0
   667  0FF5  1303               	bcf	3,6	;RP1=0, select bank0
   668  0FF6  0863               	movf	?___fltol,w
   669  0FF7  1683               	bsf	3,5	;RP0=1, select bank1
   670  0FF8  1303               	bcf	3,6	;RP1=0, select bank1
   671  0FF9  0092               	movwf	18	;volatile
   672                           
   673                           ;batch.c: 25: 
   674  0FFA  0824               	movf	startPWM2@duty^(0+128),w
   675  0FFB  1283               	bcf	3,5	;RP0=0, select bank0
   676  0FFC  1303               	bcf	3,6	;RP1=0, select bank0
   677  0FFD  009B               	movwf	27	;volatile
   678  0FFE                     l1708:
   679                           
   680                           ;batch.c: 26:     return;
   681  0FFE  1512               	bsf	18,2	;volatile
   682  0FFF                     l22:
   683  0FFF  0008               	return
   684  1000                     __end_of_startPWM2:
   685                           
   686                           	psect	text2
   687  0EA6                     __ptext2:	
   688 ;; *************** function _startPWM1 *****************
   689 ;; Defined at:
   690 ;;		line 14 in file "batch.c"
   691 ;; Parameters:    Size  Location     Type
   692 ;;  freq            4    0[BANK1 ] float 
   693 ;;  duty            2    4[BANK1 ] int 
   694 ;; Auto vars:     Size  Location     Type
   695 ;;  periodt         4    6[BANK1 ] float 
   696 ;; Return value:  Size  Location     Type
   697 ;;                  1    wreg      void 
   698 ;; Registers used:
   699 ;;		wreg, status,2, status,0, btemp+1, pclath, cstack
   700 ;; Tracked objects:
   701 ;;		On entry : 0/0
   702 ;;		On exit  : 0/0
   703 ;;		Unchanged: 0/0
   704 ;; Data sizes:     COMMON   BANK0   BANK1   BANK3   BANK2
   705 ;;      Params:         0       0       6       0       0
   706 ;;      Locals:         0       0       4       0       0
   707 ;;      Temps:          0       0       0       0       0
   708 ;;      Totals:         0       0      10       0       0
   709 ;;Total ram usage:       10 bytes
   710 ;; Hardware stack levels used:    1
   711 ;; Hardware stack levels required when called:    2
   712 ;; This function calls:
   713 ;;		___fladd
   714 ;;		___fldiv
   715 ;;		___flmul
   716 ;;		___fltol
   717 ;; This function is called by:
   718 ;;		_main
   719 ;; This function uses a non-reentrant model
   720 ;;
   721                           
   722                           
   723                           ;psect for function _startPWM1
   724  0EA6                     _startPWM1:
   725  0EA6                     l1694:	
   726                           ;incstack = 0
   727                           ; Regs used in _startPWM1: [wreg+status,2+status,0+btemp+1+pclath+cstack]
   728                           
   729                           
   730                           ;batch.c: 15:     }
   731  0EA6  300F               	movlw	15
   732  0EA7  1283               	bcf	3,5	;RP0=0, select bank0
   733  0EA8  1303               	bcf	3,6	;RP1=0, select bank0
   734  0EA9  0097               	movwf	23	;volatile
   735  0EAA                     l1696:
   736                           
   737                           ;batch.c: 16: 
   738  0EAA  1683               	bsf	3,5	;RP0=1, select bank1
   739  0EAB  1303               	bcf	3,6	;RP1=0, select bank1
   740  0EAC  0823               	movf	(startPWM1@freq+3)^(0+128),w
   741  0EAD  1283               	bcf	3,5	;RP0=0, select bank0
   742  0EAE  1303               	bcf	3,6	;RP1=0, select bank0
   743  0EAF  00B8               	movwf	___fldiv@a+3
   744  0EB0  1683               	bsf	3,5	;RP0=1, select bank1
   745  0EB1  1303               	bcf	3,6	;RP1=0, select bank1
   746  0EB2  0822               	movf	(startPWM1@freq+2)^(0+128),w
   747  0EB3  1283               	bcf	3,5	;RP0=0, select bank0
   748  0EB4  1303               	bcf	3,6	;RP1=0, select bank0
   749  0EB5  00B7               	movwf	___fldiv@a+2
   750  0EB6  1683               	bsf	3,5	;RP0=1, select bank1
   751  0EB7  1303               	bcf	3,6	;RP1=0, select bank1
   752  0EB8  0821               	movf	(startPWM1@freq+1)^(0+128),w
   753  0EB9  1283               	bcf	3,5	;RP0=0, select bank0
   754  0EBA  1303               	bcf	3,6	;RP1=0, select bank0
   755  0EBB  00B6               	movwf	___fldiv@a+1
   756  0EBC  1683               	bsf	3,5	;RP0=1, select bank1
   757  0EBD  1303               	bcf	3,6	;RP1=0, select bank1
   758  0EBE  0820               	movf	startPWM1@freq^(0+128),w
   759  0EBF  1283               	bcf	3,5	;RP0=0, select bank0
   760  0EC0  1303               	bcf	3,6	;RP1=0, select bank0
   761  0EC1  00B5               	movwf	___fldiv@a
   762  0EC2  303F               	movlw	63
   763  0EC3  00BC               	movwf	___fldiv@b+3
   764  0EC4  3080               	movlw	128
   765  0EC5  00BB               	movwf	___fldiv@b+2
   766  0EC6  3000               	movlw	0
   767  0EC7  00BA               	movwf	___fldiv@b+1
   768  0EC8  3000               	movlw	0
   769  0EC9  00B9               	movwf	___fldiv@b
   770  0ECA  120A  118A  2036  120A  158A  	fcall	___fldiv
   771  0ECF  1283               	bcf	3,5	;RP0=0, select bank0
   772  0ED0  1303               	bcf	3,6	;RP1=0, select bank0
   773  0ED1  0838               	movf	?___fldiv+3,w
   774  0ED2  1683               	bsf	3,5	;RP0=1, select bank1
   775  0ED3  1303               	bcf	3,6	;RP1=0, select bank1
   776  0ED4  00A9               	movwf	(startPWM1@periodt+3)^(0+128)
   777  0ED5  1283               	bcf	3,5	;RP0=0, select bank0
   778  0ED6  1303               	bcf	3,6	;RP1=0, select bank0
   779  0ED7  0837               	movf	?___fldiv+2,w
   780  0ED8  1683               	bsf	3,5	;RP0=1, select bank1
   781  0ED9  1303               	bcf	3,6	;RP1=0, select bank1
   782  0EDA  00A8               	movwf	(startPWM1@periodt+2)^(0+128)
   783  0EDB  1283               	bcf	3,5	;RP0=0, select bank0
   784  0EDC  1303               	bcf	3,6	;RP1=0, select bank0
   785  0EDD  0836               	movf	?___fldiv+1,w
   786  0EDE  1683               	bsf	3,5	;RP0=1, select bank1
   787  0EDF  1303               	bcf	3,6	;RP1=0, select bank1
   788  0EE0  00A7               	movwf	(startPWM1@periodt+1)^(0+128)
   789  0EE1  1283               	bcf	3,5	;RP0=0, select bank0
   790  0EE2  1303               	bcf	3,6	;RP1=0, select bank0
   791  0EE3  0835               	movf	?___fldiv,w
   792  0EE4  1683               	bsf	3,5	;RP0=1, select bank1
   793  0EE5  1303               	bcf	3,6	;RP1=0, select bank1
   794  0EE6  00A6               	movwf	startPWM1@periodt^(0+128)
   795  0EE7                     l1698:
   796                           
   797                           ;batch.c: 17: void main(void) {
   798  0EE7  0829               	movf	(startPWM1@periodt+3)^(0+128),w
   799  0EE8  1283               	bcf	3,5	;RP0=0, select bank0
   800  0EE9  1303               	bcf	3,6	;RP1=0, select bank0
   801  0EEA  00A7               	movwf	___flmul@a+3
   802  0EEB  1683               	bsf	3,5	;RP0=1, select bank1
   803  0EEC  1303               	bcf	3,6	;RP1=0, select bank1
   804  0EED  0828               	movf	(startPWM1@periodt+2)^(0+128),w
   805  0EEE  1283               	bcf	3,5	;RP0=0, select bank0
   806  0EEF  1303               	bcf	3,6	;RP1=0, select bank0
   807  0EF0  00A6               	movwf	___flmul@a+2
   808  0EF1  1683               	bsf	3,5	;RP0=1, select bank1
   809  0EF2  1303               	bcf	3,6	;RP1=0, select bank1
   810  0EF3  0827               	movf	(startPWM1@periodt+1)^(0+128),w
   811  0EF4  1283               	bcf	3,5	;RP0=0, select bank0
   812  0EF5  1303               	bcf	3,6	;RP1=0, select bank0
   813  0EF6  00A5               	movwf	___flmul@a+1
   814  0EF7  1683               	bsf	3,5	;RP0=1, select bank1
   815  0EF8  1303               	bcf	3,6	;RP1=0, select bank1
   816  0EF9  0826               	movf	startPWM1@periodt^(0+128),w
   817  0EFA  1283               	bcf	3,5	;RP0=0, select bank0
   818  0EFB  1303               	bcf	3,6	;RP1=0, select bank0
   819  0EFC  00A4               	movwf	___flmul@a
   820  0EFD  304B               	movlw	75
   821  0EFE  00A3               	movwf	___flmul@b+3
   822  0EFF  3098               	movlw	152
   823  0F00  00A2               	movwf	___flmul@b+2
   824  0F01  3096               	movlw	150
   825  0F02  00A1               	movwf	___flmul@b+1
   826  0F03  3080               	movlw	128
   827  0F04  00A0               	movwf	___flmul@b
   828  0F05  120A  118A  249B  120A  158A  	fcall	___flmul
   829  0F0A  1283               	bcf	3,5	;RP0=0, select bank0
   830  0F0B  1303               	bcf	3,6	;RP1=0, select bank0
   831  0F0C  0823               	movf	?___flmul+3,w
   832  0F0D  00BC               	movwf	___fldiv@b+3
   833  0F0E  0822               	movf	?___flmul+2,w
   834  0F0F  00BB               	movwf	___fldiv@b+2
   835  0F10  0821               	movf	?___flmul+1,w
   836  0F11  00BA               	movwf	___fldiv@b+1
   837  0F12  0820               	movf	?___flmul,w
   838  0F13  00B9               	movwf	___fldiv@b
   839  0F14  3041               	movlw	65
   840  0F15  00B8               	movwf	___fldiv@a+3
   841  0F16  3080               	movlw	128
   842  0F17  00B7               	movwf	___fldiv@a+2
   843  0F18  3000               	movlw	0
   844  0F19  00B6               	movwf	___fldiv@a+1
   845  0F1A  3000               	movlw	0
   846  0F1B  00B5               	movwf	___fldiv@a
   847  0F1C  120A  118A  2036  120A  158A  	fcall	___fldiv
   848  0F21  1283               	bcf	3,5	;RP0=0, select bank0
   849  0F22  1303               	bcf	3,6	;RP1=0, select bank0
   850  0F23  0838               	movf	?___fldiv+3,w
   851  0F24  00D6               	movwf	___fladd@a+3
   852  0F25  0837               	movf	?___fldiv+2,w
   853  0F26  00D5               	movwf	___fladd@a+2
   854  0F27  0836               	movf	?___fldiv+1,w
   855  0F28  00D4               	movwf	___fladd@a+1
   856  0F29  0835               	movf	?___fldiv,w
   857  0F2A  00D3               	movwf	___fladd@a
   858  0F2B  30BF               	movlw	191
   859  0F2C  00D2               	movwf	___fladd@b+3
   860  0F2D  3080               	movlw	128
   861  0F2E  00D1               	movwf	___fladd@b+2
   862  0F2F  3000               	movlw	0
   863  0F30  00D0               	movwf	___fladd@b+1
   864  0F31  3000               	movlw	0
   865  0F32  00CF               	movwf	___fladd@b
   866  0F33  120A  118A  2213  120A  158A  	fcall	___fladd
   867  0F38  1283               	bcf	3,5	;RP0=0, select bank0
   868  0F39  1303               	bcf	3,6	;RP1=0, select bank0
   869  0F3A  0852               	movf	?___fladd+3,w
   870  0F3B  00E6               	movwf	___fltol@f1+3
   871  0F3C  0851               	movf	?___fladd+2,w
   872  0F3D  00E5               	movwf	___fltol@f1+2
   873  0F3E  0850               	movf	?___fladd+1,w
   874  0F3F  00E4               	movwf	___fltol@f1+1
   875  0F40  084F               	movf	?___fladd,w
   876  0F41  00E3               	movwf	___fltol@f1
   877  0F42  120A  158A  262A  120A  158A  	fcall	___fltol
   878  0F47  1283               	bcf	3,5	;RP0=0, select bank0
   879  0F48  1303               	bcf	3,6	;RP1=0, select bank0
   880  0F49  0863               	movf	?___fltol,w
   881  0F4A  1683               	bsf	3,5	;RP0=1, select bank1
   882  0F4B  1303               	bcf	3,6	;RP1=0, select bank1
   883  0F4C  0092               	movwf	18	;volatile
   884                           
   885                           ;batch.c: 18:     TRISC1 = 0;
   886  0F4D  0824               	movf	startPWM1@duty^(0+128),w
   887  0F4E  1283               	bcf	3,5	;RP0=0, select bank0
   888  0F4F  1303               	bcf	3,6	;RP1=0, select bank0
   889  0F50  0095               	movwf	21	;volatile
   890  0F51                     l1700:
   891                           
   892                           ;batch.c: 19:     TRISC2 = 0;
   893  0F51  1512               	bsf	18,2	;volatile
   894  0F52                     l19:
   895  0F52  0008               	return
   896  0F53                     __end_of_startPWM1:
   897                           
   898                           	psect	text3
   899  0E2A                     __ptext3:	
   900 ;; *************** function ___fltol *****************
   901 ;; Defined at:
   902 ;;		line 43 in file "C:\Program Files\Microchip\xc8\v2.30\pic\sources\c90\common\fltol.c"
   903 ;; Parameters:    Size  Location     Type
   904 ;;  f1              4   67[BANK0 ] void 
   905 ;; Auto vars:     Size  Location     Type
   906 ;;  exp1            1   77[BANK0 ] unsigned char 
   907 ;;  sign1           1   76[BANK0 ] unsigned char 
   908 ;; Return value:  Size  Location     Type
   909 ;;                  4   67[BANK0 ] long 
   910 ;; Registers used:
   911 ;;		wreg, status,2, status,0
   912 ;; Tracked objects:
   913 ;;		On entry : 0/0
   914 ;;		On exit  : 0/0
   915 ;;		Unchanged: 0/0
   916 ;; Data sizes:     COMMON   BANK0   BANK1   BANK3   BANK2
   917 ;;      Params:         0       4       0       0       0
   918 ;;      Locals:         0       2       0       0       0
   919 ;;      Temps:          0       5       0       0       0
   920 ;;      Totals:         0      11       0       0       0
   921 ;;Total ram usage:       11 bytes
   922 ;; Hardware stack levels used:    1
   923 ;; This function calls:
   924 ;;		Nothing
   925 ;; This function is called by:
   926 ;;		_startPWM1
   927 ;;		_startPWM2
   928 ;; This function uses a non-reentrant model
   929 ;;
   930                           
   931                           
   932                           ;psect for function ___fltol
   933  0E2A                     ___fltol:
   934  0E2A                     l1182:	
   935                           ;incstack = 0
   936                           ; Regs used in ___fltol: [wreg+status,2+status,0]
   937                           
   938  0E2A  1003               	clrc
   939  0E2B  1283               	bcf	3,5	;RP0=0, select bank0
   940  0E2C  1303               	bcf	3,6	;RP1=0, select bank0
   941  0E2D  0D65               	rlf	___fltol@f1+2,w
   942  0E2E  0D66               	rlf	___fltol@f1+3,w
   943  0E2F  00E7               	movwf	??___fltol
   944  0E30  0867               	movf	??___fltol,w
   945  0E31  00ED               	movwf	___fltol@exp1
   946  0E32  086D               	movf	___fltol@exp1,w
   947  0E33  1D03               	btfss	3,2
   948  0E34  2E36               	goto	u1291
   949  0E35  2E37               	goto	u1290
   950  0E36                     u1291:
   951  0E36  2E40               	goto	l1188
   952  0E37                     u1290:
   953  0E37                     l1184:
   954  0E37  3000               	movlw	0
   955  0E38  00E6               	movwf	?___fltol+3
   956  0E39  3000               	movlw	0
   957  0E3A  00E5               	movwf	?___fltol+2
   958  0E3B  3000               	movlw	0
   959  0E3C  00E4               	movwf	?___fltol+1
   960  0E3D  3000               	movlw	0
   961  0E3E  00E3               	movwf	?___fltol
   962  0E3F  2EA5               	goto	l302
   963  0E40                     l1188:
   964  0E40  0863               	movf	___fltol@f1,w
   965  0E41  00E7               	movwf	??___fltol
   966  0E42  0864               	movf	___fltol@f1+1,w
   967  0E43  00E8               	movwf	??___fltol+1
   968  0E44  0865               	movf	___fltol@f1+2,w
   969  0E45  00E9               	movwf	??___fltol+2
   970  0E46  0866               	movf	___fltol@f1+3,w
   971  0E47  00EA               	movwf	??___fltol+3
   972  0E48  301F               	movlw	31
   973  0E49                     u1305:
   974  0E49  1003               	clrc
   975  0E4A  0CEA               	rrf	??___fltol+3,f
   976  0E4B  0CE9               	rrf	??___fltol+2,f
   977  0E4C  0CE8               	rrf	??___fltol+1,f
   978  0E4D  0CE7               	rrf	??___fltol,f
   979  0E4E                     u1300:
   980  0E4E  3EFF               	addlw	-1
   981  0E4F  1D03               	skipz
   982  0E50  2E49               	goto	u1305
   983  0E51  0867               	movf	??___fltol,w
   984  0E52  00EB               	movwf	??___fltol+4
   985  0E53  086B               	movf	??___fltol+4,w
   986  0E54  00EC               	movwf	___fltol@sign1
   987  0E55                     l1190:
   988  0E55  17E5               	bsf	___fltol@f1+2,7
   989  0E56                     l1192:
   990  0E56  30FF               	movlw	255
   991  0E57  05E3               	andwf	___fltol@f1,f
   992  0E58  30FF               	movlw	255
   993  0E59  05E4               	andwf	___fltol@f1+1,f
   994  0E5A  30FF               	movlw	255
   995  0E5B  05E5               	andwf	___fltol@f1+2,f
   996  0E5C  3000               	movlw	0
   997  0E5D  05E6               	andwf	___fltol@f1+3,f
   998  0E5E                     l1194:
   999  0E5E  3096               	movlw	150
  1000  0E5F  02ED               	subwf	___fltol@exp1,f
  1001  0E60                     l1196:
  1002  0E60  1FED               	btfss	___fltol@exp1,7
  1003  0E61  2E63               	goto	u1311
  1004  0E62  2E64               	goto	u1310
  1005  0E63                     u1311:
  1006  0E63  2E7E               	goto	l1206
  1007  0E64                     u1310:
  1008  0E64                     l1198:
  1009  0E64  086D               	movf	___fltol@exp1,w
  1010  0E65  3A80               	xorlw	128
  1011  0E66  3E97               	addlw	151
  1012  0E67  1803               	skipnc
  1013  0E68  2E6A               	goto	u1321
  1014  0E69  2E6B               	goto	u1320
  1015  0E6A                     u1321:
  1016  0E6A  2E6C               	goto	l1204
  1017  0E6B                     u1320:
  1018  0E6B  2E37               	goto	l1184
  1019  0E6C                     l1204:
  1020  0E6C  3001               	movlw	1
  1021  0E6D                     u1335:
  1022  0E6D  1003               	clrc
  1023  0E6E  0CE6               	rrf	___fltol@f1+3,f
  1024  0E6F  0CE5               	rrf	___fltol@f1+2,f
  1025  0E70  0CE4               	rrf	___fltol@f1+1,f
  1026  0E71  0CE3               	rrf	___fltol@f1,f
  1027  0E72  3EFF               	addlw	-1
  1028  0E73  1D03               	skipz
  1029  0E74  2E6D               	goto	u1335
  1030  0E75  3001               	movlw	1
  1031  0E76  00E7               	movwf	??___fltol
  1032  0E77  0867               	movf	??___fltol,w
  1033  0E78  07ED               	addwf	___fltol@exp1,f
  1034  0E79  1D03               	btfss	3,2
  1035  0E7A  2E7C               	goto	u1341
  1036  0E7B  2E7D               	goto	u1340
  1037  0E7C                     u1341:
  1038  0E7C  2E6C               	goto	l1204
  1039  0E7D                     u1340:
  1040  0E7D  2E95               	goto	l1214
  1041  0E7E                     l1206:
  1042  0E7E  3020               	movlw	32
  1043  0E7F  026D               	subwf	___fltol@exp1,w
  1044  0E80  1C03               	skipc
  1045  0E81  2E83               	goto	u1351
  1046  0E82  2E84               	goto	u1350
  1047  0E83                     u1351:
  1048  0E83  2E90               	goto	l309
  1049  0E84                     u1350:
  1050  0E84  2E37               	goto	l1184
  1051  0E85                     l1212:
  1052  0E85  3001               	movlw	1
  1053  0E86  00E7               	movwf	??___fltol
  1054  0E87                     u1365:
  1055  0E87  1003               	clrc
  1056  0E88  0DE3               	rlf	___fltol@f1,f
  1057  0E89  0DE4               	rlf	___fltol@f1+1,f
  1058  0E8A  0DE5               	rlf	___fltol@f1+2,f
  1059  0E8B  0DE6               	rlf	___fltol@f1+3,f
  1060  0E8C  0BE7               	decfsz	??___fltol,f
  1061  0E8D  2E87               	goto	u1365
  1062  0E8E  3001               	movlw	1
  1063  0E8F  02ED               	subwf	___fltol@exp1,f
  1064  0E90                     l309:
  1065  0E90  086D               	movf	___fltol@exp1,w
  1066  0E91  1D03               	btfss	3,2
  1067  0E92  2E94               	goto	u1371
  1068  0E93  2E95               	goto	u1370
  1069  0E94                     u1371:
  1070  0E94  2E85               	goto	l1212
  1071  0E95                     u1370:
  1072  0E95                     l1214:
  1073  0E95  086C               	movf	___fltol@sign1,w
  1074  0E96  1903               	btfsc	3,2
  1075  0E97  2E99               	goto	u1381
  1076  0E98  2E9A               	goto	u1380
  1077  0E99                     u1381:
  1078  0E99  2EA5               	goto	l312
  1079  0E9A                     u1380:
  1080  0E9A                     l1216:
  1081  0E9A  09E3               	comf	___fltol@f1,f
  1082  0E9B  09E4               	comf	___fltol@f1+1,f
  1083  0E9C  09E5               	comf	___fltol@f1+2,f
  1084  0E9D  09E6               	comf	___fltol@f1+3,f
  1085  0E9E  0AE3               	incf	___fltol@f1,f
  1086  0E9F  1903               	skipnz
  1087  0EA0  0AE4               	incf	___fltol@f1+1,f
  1088  0EA1  1903               	skipnz
  1089  0EA2  0AE5               	incf	___fltol@f1+2,f
  1090  0EA3  1903               	skipnz
  1091  0EA4  0AE6               	incf	___fltol@f1+3,f
  1092  0EA5                     l312:
  1093  0EA5                     l302:
  1094  0EA5  0008               	return
  1095  0EA6                     __end_of___fltol:
  1096                           
  1097                           	psect	text4
  1098  049B                     __ptext4:	
  1099 ;; *************** function ___flmul *****************
  1100 ;; Defined at:
  1101 ;;		line 8 in file "C:\Program Files\Microchip\xc8\v2.30\pic\sources\c90\common\sprcmul.c"
  1102 ;; Parameters:    Size  Location     Type
  1103 ;;  b               4    0[BANK0 ] long 
  1104 ;;  a               4    4[BANK0 ] long 
  1105 ;; Auto vars:     Size  Location     Type
  1106 ;;  prod            4   15[BANK0 ] struct .
  1107 ;;  grs             4    9[BANK0 ] unsigned long 
  1108 ;;  temp            2   19[BANK0 ] struct .
  1109 ;;  bexp            1   14[BANK0 ] unsigned char 
  1110 ;;  aexp            1   13[BANK0 ] unsigned char 
  1111 ;;  sign            1    8[BANK0 ] unsigned char 
  1112 ;; Return value:  Size  Location     Type
  1113 ;;                  4    0[BANK0 ] unsigned char 
  1114 ;; Registers used:
  1115 ;;		wreg, status,2, status,0, btemp+1, pclath, cstack
  1116 ;; Tracked objects:
  1117 ;;		On entry : 0/0
  1118 ;;		On exit  : 0/0
  1119 ;;		Unchanged: 0/0
  1120 ;; Data sizes:     COMMON   BANK0   BANK1   BANK3   BANK2
  1121 ;;      Params:         0       8       0       0       0
  1122 ;;      Locals:         0      13       0       0       0
  1123 ;;      Temps:          5       0       0       0       0
  1124 ;;      Totals:         5      21       0       0       0
  1125 ;;Total ram usage:       26 bytes
  1126 ;; Hardware stack levels used:    1
  1127 ;; Hardware stack levels required when called:    1
  1128 ;; This function calls:
  1129 ;;		__Umul8_16
  1130 ;; This function is called by:
  1131 ;;		_startPWM1
  1132 ;;		_startPWM2
  1133 ;; This function uses a non-reentrant model
  1134 ;;
  1135                           
  1136                           
  1137                           ;psect for function ___flmul
  1138  049B                     ___flmul:
  1139  049B                     l1554:	
  1140                           ;incstack = 0
  1141                           ; Regs used in ___flmul: [wreg+status,2+status,0+btemp+1+pclath+cstack]
  1142                           
  1143  049B  1283               	bcf	3,5	;RP0=0, select bank0
  1144  049C  1303               	bcf	3,6	;RP1=0, select bank0
  1145  049D  0823               	movf	___flmul@b+3,w
  1146  049E  3980               	andlw	128
  1147  049F  00F9               	movwf	??___flmul
  1148  04A0  0879               	movf	??___flmul,w
  1149  04A1  00A8               	movwf	___flmul@sign
  1150  04A2                     l1556:
  1151  04A2  0823               	movf	___flmul@b+3,w
  1152  04A3  00F9               	movwf	??___flmul
  1153  04A4  0779               	addwf	??___flmul,w
  1154  04A5  00FA               	movwf	??___flmul+1
  1155  04A6  087A               	movf	??___flmul+1,w
  1156  04A7  00AE               	movwf	___flmul@bexp
  1157  04A8                     l1558:
  1158  04A8  1FA2               	btfss	___flmul@b+2,7
  1159  04A9  2CAB               	goto	u2141
  1160  04AA  2CAC               	goto	u2140
  1161  04AB                     u2141:
  1162  04AB  2CAD               	goto	l1562
  1163  04AC                     u2140:
  1164  04AC                     l1560:
  1165  04AC  142E               	bsf	___flmul@bexp,0
  1166  04AD                     l1562:
  1167  04AD  082E               	movf	___flmul@bexp,w
  1168  04AE  1903               	btfsc	3,2
  1169  04AF  2CB1               	goto	u2151
  1170  04B0  2CB2               	goto	u2150
  1171  04B1                     u2151:
  1172  04B1  2CC1               	goto	l1570
  1173  04B2                     u2150:
  1174  04B2                     l1564:
  1175  04B2  0A2E               	incf	___flmul@bexp,w
  1176  04B3  1D03               	btfss	3,2
  1177  04B4  2CB6               	goto	u2161
  1178  04B5  2CB7               	goto	u2160
  1179  04B6                     u2161:
  1180  04B6  2CBF               	goto	l1568
  1181  04B7                     u2160:
  1182  04B7                     l1566:
  1183  04B7  3000               	movlw	0
  1184  04B8  00A3               	movwf	___flmul@b+3
  1185  04B9  3000               	movlw	0
  1186  04BA  00A2               	movwf	___flmul@b+2
  1187  04BB  3000               	movlw	0
  1188  04BC  00A1               	movwf	___flmul@b+1
  1189  04BD  3000               	movlw	0
  1190  04BE  00A0               	movwf	___flmul@b
  1191  04BF                     l1568:
  1192  04BF  17A2               	bsf	___flmul@b+2,7
  1193  04C0  2CC9               	goto	l1572
  1194  04C1                     l1570:
  1195  04C1  3000               	movlw	0
  1196  04C2  00A3               	movwf	___flmul@b+3
  1197  04C3  3000               	movlw	0
  1198  04C4  00A2               	movwf	___flmul@b+2
  1199  04C5  3000               	movlw	0
  1200  04C6  00A1               	movwf	___flmul@b+1
  1201  04C7  3000               	movlw	0
  1202  04C8  00A0               	movwf	___flmul@b
  1203  04C9                     l1572:
  1204  04C9  0827               	movf	___flmul@a+3,w
  1205  04CA  3980               	andlw	128
  1206  04CB  00F9               	movwf	??___flmul
  1207  04CC  0879               	movf	??___flmul,w
  1208  04CD  06A8               	xorwf	___flmul@sign,f
  1209  04CE                     l1574:
  1210  04CE  0827               	movf	___flmul@a+3,w
  1211  04CF  00F9               	movwf	??___flmul
  1212  04D0  0779               	addwf	??___flmul,w
  1213  04D1  00FA               	movwf	??___flmul+1
  1214  04D2  087A               	movf	??___flmul+1,w
  1215  04D3  00AD               	movwf	___flmul@aexp
  1216  04D4                     l1576:
  1217  04D4  1FA6               	btfss	___flmul@a+2,7
  1218  04D5  2CD7               	goto	u2171
  1219  04D6  2CD8               	goto	u2170
  1220  04D7                     u2171:
  1221  04D7  2CD9               	goto	l1580
  1222  04D8                     u2170:
  1223  04D8                     l1578:
  1224  04D8  142D               	bsf	___flmul@aexp,0
  1225  04D9                     l1580:
  1226  04D9  082D               	movf	___flmul@aexp,w
  1227  04DA  1903               	btfsc	3,2
  1228  04DB  2CDD               	goto	u2181
  1229  04DC  2CDE               	goto	u2180
  1230  04DD                     u2181:
  1231  04DD  2CED               	goto	l1588
  1232  04DE                     u2180:
  1233  04DE                     l1582:
  1234  04DE  0A2D               	incf	___flmul@aexp,w
  1235  04DF  1D03               	btfss	3,2
  1236  04E0  2CE2               	goto	u2191
  1237  04E1  2CE3               	goto	u2190
  1238  04E2                     u2191:
  1239  04E2  2CEB               	goto	l1586
  1240  04E3                     u2190:
  1241  04E3                     l1584:
  1242  04E3  3000               	movlw	0
  1243  04E4  00A7               	movwf	___flmul@a+3
  1244  04E5  3000               	movlw	0
  1245  04E6  00A6               	movwf	___flmul@a+2
  1246  04E7  3000               	movlw	0
  1247  04E8  00A5               	movwf	___flmul@a+1
  1248  04E9  3000               	movlw	0
  1249  04EA  00A4               	movwf	___flmul@a
  1250  04EB                     l1586:
  1251  04EB  17A6               	bsf	___flmul@a+2,7
  1252  04EC  2CF5               	goto	l1590
  1253  04ED                     l1588:
  1254  04ED  3000               	movlw	0
  1255  04EE  00A7               	movwf	___flmul@a+3
  1256  04EF  3000               	movlw	0
  1257  04F0  00A6               	movwf	___flmul@a+2
  1258  04F1  3000               	movlw	0
  1259  04F2  00A5               	movwf	___flmul@a+1
  1260  04F3  3000               	movlw	0
  1261  04F4  00A4               	movwf	___flmul@a
  1262  04F5                     l1590:
  1263  04F5  082D               	movf	___flmul@aexp,w
  1264  04F6  1903               	btfsc	3,2
  1265  04F7  2CF9               	goto	u2201
  1266  04F8  2CFA               	goto	u2200
  1267  04F9                     u2201:
  1268  04F9  2CFF               	goto	l1594
  1269  04FA                     u2200:
  1270  04FA                     l1592:
  1271  04FA  082E               	movf	___flmul@bexp,w
  1272  04FB  1D03               	btfss	3,2
  1273  04FC  2CFE               	goto	u2211
  1274  04FD  2CFF               	goto	u2210
  1275  04FE                     u2211:
  1276  04FE  2D08               	goto	l1598
  1277  04FF                     u2210:
  1278  04FF                     l1594:
  1279  04FF  3000               	movlw	0
  1280  0500  00A3               	movwf	?___flmul+3
  1281  0501  3000               	movlw	0
  1282  0502  00A2               	movwf	?___flmul+2
  1283  0503  3000               	movlw	0
  1284  0504  00A1               	movwf	?___flmul+1
  1285  0505  3000               	movlw	0
  1286  0506  00A0               	movwf	?___flmul
  1287  0507  2FFB               	goto	l505
  1288  0508                     l1598:
  1289  0508  0820               	movf	___flmul@b,w
  1290  0509  00F9               	movwf	??___flmul
  1291  050A  0879               	movf	??___flmul,w
  1292  050B  00F0               	movwf	__Umul8_16@multiplicand
  1293  050C  0826               	movf	___flmul@a+2,w
  1294  050D  120A  158A  2603  120A  118A  	fcall	__Umul8_16
  1295  0512  0871               	movf	?__Umul8_16+1,w
  1296  0513  1283               	bcf	3,5	;RP0=0, select bank0
  1297  0514  1303               	bcf	3,6	;RP1=0, select bank0
  1298  0515  00B4               	movwf	___flmul@temp+1
  1299  0516  0870               	movf	?__Umul8_16,w
  1300  0517  00B3               	movwf	___flmul@temp
  1301  0518                     l1600:
  1302  0518  0833               	movf	___flmul@temp,w
  1303  0519  00F9               	movwf	??___flmul
  1304  051A  01FA               	clrf	??___flmul+1
  1305  051B  01FB               	clrf	??___flmul+2
  1306  051C  01FC               	clrf	??___flmul+3
  1307  051D  087C               	movf	??___flmul+3,w
  1308  051E  00AC               	movwf	___flmul@grs+3
  1309  051F  087B               	movf	??___flmul+2,w
  1310  0520  00AB               	movwf	___flmul@grs+2
  1311  0521  087A               	movf	??___flmul+1,w
  1312  0522  00AA               	movwf	___flmul@grs+1
  1313  0523  0879               	movf	??___flmul,w
  1314  0524  00A9               	movwf	___flmul@grs
  1315  0525                     l1602:
  1316  0525  0834               	movf	___flmul@temp+1,w
  1317  0526  00F9               	movwf	??___flmul
  1318  0527  01FA               	clrf	??___flmul+1
  1319  0528  01FB               	clrf	??___flmul+2
  1320  0529  01FC               	clrf	??___flmul+3
  1321  052A  087C               	movf	??___flmul+3,w
  1322  052B  00B2               	movwf	___flmul@prod+3
  1323  052C  087B               	movf	??___flmul+2,w
  1324  052D  00B1               	movwf	___flmul@prod+2
  1325  052E  087A               	movf	??___flmul+1,w
  1326  052F  00B0               	movwf	___flmul@prod+1
  1327  0530  0879               	movf	??___flmul,w
  1328  0531  00AF               	movwf	___flmul@prod
  1329  0532  0821               	movf	___flmul@b+1,w
  1330  0533  00F9               	movwf	??___flmul
  1331  0534  0879               	movf	??___flmul,w
  1332  0535  00F0               	movwf	__Umul8_16@multiplicand
  1333  0536  0825               	movf	___flmul@a+1,w
  1334  0537  120A  158A  2603  120A  118A  	fcall	__Umul8_16
  1335  053C  0871               	movf	?__Umul8_16+1,w
  1336  053D  1283               	bcf	3,5	;RP0=0, select bank0
  1337  053E  1303               	bcf	3,6	;RP1=0, select bank0
  1338  053F  00B4               	movwf	___flmul@temp+1
  1339  0540  0870               	movf	?__Umul8_16,w
  1340  0541  00B3               	movwf	___flmul@temp
  1341  0542                     l1604:
  1342  0542  0833               	movf	___flmul@temp,w
  1343  0543  00F9               	movwf	??___flmul
  1344  0544  01FA               	clrf	??___flmul+1
  1345  0545  01FB               	clrf	??___flmul+2
  1346  0546  01FC               	clrf	??___flmul+3
  1347  0547  0879               	movf	??___flmul,w
  1348  0548  07A9               	addwf	___flmul@grs,f
  1349  0549  087A               	movf	??___flmul+1,w
  1350  054A  1103               	clrz
  1351  054B  1803               	skipnc
  1352  054C  3E01               	addlw	1
  1353  054D  1903               	skipnz
  1354  054E  2D50               	goto	u2221
  1355  054F  07AA               	addwf	___flmul@grs+1,f
  1356  0550                     u2221:
  1357  0550  087B               	movf	??___flmul+2,w
  1358  0551  1103               	clrz
  1359  0552  1803               	skipnc
  1360  0553  3E01               	addlw	1
  1361  0554  1903               	skipnz
  1362  0555  2D57               	goto	u2222
  1363  0556  07AB               	addwf	___flmul@grs+2,f
  1364  0557                     u2222:
  1365  0557  087C               	movf	??___flmul+3,w
  1366  0558  1103               	clrz
  1367  0559  1803               	skipnc
  1368  055A  3E01               	addlw	1
  1369  055B  1903               	skipnz
  1370  055C  2D5E               	goto	u2223
  1371  055D  07AC               	addwf	___flmul@grs+3,f
  1372  055E                     u2223:
  1373  055E                     l1606:
  1374  055E  0834               	movf	___flmul@temp+1,w
  1375  055F  00F9               	movwf	??___flmul
  1376  0560  01FA               	clrf	??___flmul+1
  1377  0561  01FB               	clrf	??___flmul+2
  1378  0562  01FC               	clrf	??___flmul+3
  1379  0563  0879               	movf	??___flmul,w
  1380  0564  07AF               	addwf	___flmul@prod,f
  1381  0565  087A               	movf	??___flmul+1,w
  1382  0566  1103               	clrz
  1383  0567  1803               	skipnc
  1384  0568  3E01               	addlw	1
  1385  0569  1903               	skipnz
  1386  056A  2D6C               	goto	u2231
  1387  056B  07B0               	addwf	___flmul@prod+1,f
  1388  056C                     u2231:
  1389  056C  087B               	movf	??___flmul+2,w
  1390  056D  1103               	clrz
  1391  056E  1803               	skipnc
  1392  056F  3E01               	addlw	1
  1393  0570  1903               	skipnz
  1394  0571  2D73               	goto	u2232
  1395  0572  07B1               	addwf	___flmul@prod+2,f
  1396  0573                     u2232:
  1397  0573  087C               	movf	??___flmul+3,w
  1398  0574  1103               	clrz
  1399  0575  1803               	skipnc
  1400  0576  3E01               	addlw	1
  1401  0577  1903               	skipnz
  1402  0578  2D7A               	goto	u2233
  1403  0579  07B2               	addwf	___flmul@prod+3,f
  1404  057A                     u2233:
  1405  057A  0822               	movf	___flmul@b+2,w
  1406  057B  00F9               	movwf	??___flmul
  1407  057C  0879               	movf	??___flmul,w
  1408  057D  00F0               	movwf	__Umul8_16@multiplicand
  1409  057E  0824               	movf	___flmul@a,w
  1410  057F  120A  158A  2603  120A  118A  	fcall	__Umul8_16
  1411  0584  0871               	movf	?__Umul8_16+1,w
  1412  0585  1283               	bcf	3,5	;RP0=0, select bank0
  1413  0586  1303               	bcf	3,6	;RP1=0, select bank0
  1414  0587  00B4               	movwf	___flmul@temp+1
  1415  0588  0870               	movf	?__Umul8_16,w
  1416  0589  00B3               	movwf	___flmul@temp
  1417  058A                     l1608:
  1418  058A  0833               	movf	___flmul@temp,w
  1419  058B  00F9               	movwf	??___flmul
  1420  058C  01FA               	clrf	??___flmul+1
  1421  058D  01FB               	clrf	??___flmul+2
  1422  058E  01FC               	clrf	??___flmul+3
  1423  058F  0879               	movf	??___flmul,w
  1424  0590  07A9               	addwf	___flmul@grs,f
  1425  0591  087A               	movf	??___flmul+1,w
  1426  0592  1103               	clrz
  1427  0593  1803               	skipnc
  1428  0594  3E01               	addlw	1
  1429  0595  1903               	skipnz
  1430  0596  2D98               	goto	u2241
  1431  0597  07AA               	addwf	___flmul@grs+1,f
  1432  0598                     u2241:
  1433  0598  087B               	movf	??___flmul+2,w
  1434  0599  1103               	clrz
  1435  059A  1803               	skipnc
  1436  059B  3E01               	addlw	1
  1437  059C  1903               	skipnz
  1438  059D  2D9F               	goto	u2242
  1439  059E  07AB               	addwf	___flmul@grs+2,f
  1440  059F                     u2242:
  1441  059F  087C               	movf	??___flmul+3,w
  1442  05A0  1103               	clrz
  1443  05A1  1803               	skipnc
  1444  05A2  3E01               	addlw	1
  1445  05A3  1903               	skipnz
  1446  05A4  2DA6               	goto	u2243
  1447  05A5  07AC               	addwf	___flmul@grs+3,f
  1448  05A6                     u2243:
  1449  05A6                     l1610:
  1450  05A6  0834               	movf	___flmul@temp+1,w
  1451  05A7  00F9               	movwf	??___flmul
  1452  05A8  01FA               	clrf	??___flmul+1
  1453  05A9  01FB               	clrf	??___flmul+2
  1454  05AA  01FC               	clrf	??___flmul+3
  1455  05AB  0879               	movf	??___flmul,w
  1456  05AC  07AF               	addwf	___flmul@prod,f
  1457  05AD  087A               	movf	??___flmul+1,w
  1458  05AE  1103               	clrz
  1459  05AF  1803               	skipnc
  1460  05B0  3E01               	addlw	1
  1461  05B1  1903               	skipnz
  1462  05B2  2DB4               	goto	u2251
  1463  05B3  07B0               	addwf	___flmul@prod+1,f
  1464  05B4                     u2251:
  1465  05B4  087B               	movf	??___flmul+2,w
  1466  05B5  1103               	clrz
  1467  05B6  1803               	skipnc
  1468  05B7  3E01               	addlw	1
  1469  05B8  1903               	skipnz
  1470  05B9  2DBB               	goto	u2252
  1471  05BA  07B1               	addwf	___flmul@prod+2,f
  1472  05BB                     u2252:
  1473  05BB  087C               	movf	??___flmul+3,w
  1474  05BC  1103               	clrz
  1475  05BD  1803               	skipnc
  1476  05BE  3E01               	addlw	1
  1477  05BF  1903               	skipnz
  1478  05C0  2DC2               	goto	u2253
  1479  05C1  07B2               	addwf	___flmul@prod+3,f
  1480  05C2                     u2253:
  1481  05C2                     l1612:
  1482  05C2  3008               	movlw	8
  1483  05C3  00F9               	movwf	??___flmul
  1484  05C4                     u2265:
  1485  05C4  1003               	clrc
  1486  05C5  0DA9               	rlf	___flmul@grs,f
  1487  05C6  0DAA               	rlf	___flmul@grs+1,f
  1488  05C7  0DAB               	rlf	___flmul@grs+2,f
  1489  05C8  0DAC               	rlf	___flmul@grs+3,f
  1490  05C9  0BF9               	decfsz	??___flmul,f
  1491  05CA  2DC4               	goto	u2265
  1492  05CB                     l1614:
  1493  05CB  0821               	movf	___flmul@b+1,w
  1494  05CC  00F9               	movwf	??___flmul
  1495  05CD  0879               	movf	??___flmul,w
  1496  05CE  00F0               	movwf	__Umul8_16@multiplicand
  1497  05CF  0824               	movf	___flmul@a,w
  1498  05D0  120A  158A  2603  120A  118A  	fcall	__Umul8_16
  1499  05D5  0871               	movf	?__Umul8_16+1,w
  1500  05D6  1283               	bcf	3,5	;RP0=0, select bank0
  1501  05D7  1303               	bcf	3,6	;RP1=0, select bank0
  1502  05D8  00B4               	movwf	___flmul@temp+1
  1503  05D9  0870               	movf	?__Umul8_16,w
  1504  05DA  00B3               	movwf	___flmul@temp
  1505  05DB                     l1616:
  1506  05DB  0833               	movf	___flmul@temp,w
  1507  05DC  00F9               	movwf	??___flmul
  1508  05DD  0834               	movf	___flmul@temp+1,w
  1509  05DE  00FA               	movwf	??___flmul+1
  1510  05DF  01FB               	clrf	??___flmul+2
  1511  05E0  01FC               	clrf	??___flmul+3
  1512  05E1  0879               	movf	??___flmul,w
  1513  05E2  07A9               	addwf	___flmul@grs,f
  1514  05E3  087A               	movf	??___flmul+1,w
  1515  05E4  1103               	clrz
  1516  05E5  1803               	skipnc
  1517  05E6  3E01               	addlw	1
  1518  05E7  1903               	skipnz
  1519  05E8  2DEA               	goto	u2271
  1520  05E9  07AA               	addwf	___flmul@grs+1,f
  1521  05EA                     u2271:
  1522  05EA  087B               	movf	??___flmul+2,w
  1523  05EB  1103               	clrz
  1524  05EC  1803               	skipnc
  1525  05ED  3E01               	addlw	1
  1526  05EE  1903               	skipnz
  1527  05EF  2DF1               	goto	u2272
  1528  05F0  07AB               	addwf	___flmul@grs+2,f
  1529  05F1                     u2272:
  1530  05F1  087C               	movf	??___flmul+3,w
  1531  05F2  1103               	clrz
  1532  05F3  1803               	skipnc
  1533  05F4  3E01               	addlw	1
  1534  05F5  1903               	skipnz
  1535  05F6  2DF8               	goto	u2273
  1536  05F7  07AC               	addwf	___flmul@grs+3,f
  1537  05F8                     u2273:
  1538  05F8                     l1618:
  1539  05F8  0820               	movf	___flmul@b,w
  1540  05F9  00F9               	movwf	??___flmul
  1541  05FA  0879               	movf	??___flmul,w
  1542  05FB  00F0               	movwf	__Umul8_16@multiplicand
  1543  05FC  0825               	movf	___flmul@a+1,w
  1544  05FD  120A  158A  2603  120A  118A  	fcall	__Umul8_16
  1545  0602  0871               	movf	?__Umul8_16+1,w
  1546  0603  1283               	bcf	3,5	;RP0=0, select bank0
  1547  0604  1303               	bcf	3,6	;RP1=0, select bank0
  1548  0605  00B4               	movwf	___flmul@temp+1
  1549  0606  0870               	movf	?__Umul8_16,w
  1550  0607  00B3               	movwf	___flmul@temp
  1551  0608                     l1620:
  1552  0608  0833               	movf	___flmul@temp,w
  1553  0609  00F9               	movwf	??___flmul
  1554  060A  0834               	movf	___flmul@temp+1,w
  1555  060B  00FA               	movwf	??___flmul+1
  1556  060C  01FB               	clrf	??___flmul+2
  1557  060D  01FC               	clrf	??___flmul+3
  1558  060E  0879               	movf	??___flmul,w
  1559  060F  07A9               	addwf	___flmul@grs,f
  1560  0610  087A               	movf	??___flmul+1,w
  1561  0611  1103               	clrz
  1562  0612  1803               	skipnc
  1563  0613  3E01               	addlw	1
  1564  0614  1903               	skipnz
  1565  0615  2E17               	goto	u2281
  1566  0616  07AA               	addwf	___flmul@grs+1,f
  1567  0617                     u2281:
  1568  0617  087B               	movf	??___flmul+2,w
  1569  0618  1103               	clrz
  1570  0619  1803               	skipnc
  1571  061A  3E01               	addlw	1
  1572  061B  1903               	skipnz
  1573  061C  2E1E               	goto	u2282
  1574  061D  07AB               	addwf	___flmul@grs+2,f
  1575  061E                     u2282:
  1576  061E  087C               	movf	??___flmul+3,w
  1577  061F  1103               	clrz
  1578  0620  1803               	skipnc
  1579  0621  3E01               	addlw	1
  1580  0622  1903               	skipnz
  1581  0623  2E25               	goto	u2283
  1582  0624  07AC               	addwf	___flmul@grs+3,f
  1583  0625                     u2283:
  1584  0625                     l1622:
  1585  0625  3008               	movlw	8
  1586  0626  00F9               	movwf	??___flmul
  1587  0627                     u2295:
  1588  0627  1003               	clrc
  1589  0628  0DA9               	rlf	___flmul@grs,f
  1590  0629  0DAA               	rlf	___flmul@grs+1,f
  1591  062A  0DAB               	rlf	___flmul@grs+2,f
  1592  062B  0DAC               	rlf	___flmul@grs+3,f
  1593  062C  0BF9               	decfsz	??___flmul,f
  1594  062D  2E27               	goto	u2295
  1595  062E  0820               	movf	___flmul@b,w
  1596  062F  00F9               	movwf	??___flmul
  1597  0630  0879               	movf	??___flmul,w
  1598  0631  00F0               	movwf	__Umul8_16@multiplicand
  1599  0632  0824               	movf	___flmul@a,w
  1600  0633  120A  158A  2603  120A  118A  	fcall	__Umul8_16
  1601  0638  0871               	movf	?__Umul8_16+1,w
  1602  0639  1283               	bcf	3,5	;RP0=0, select bank0
  1603  063A  1303               	bcf	3,6	;RP1=0, select bank0
  1604  063B  00B4               	movwf	___flmul@temp+1
  1605  063C  0870               	movf	?__Umul8_16,w
  1606  063D  00B3               	movwf	___flmul@temp
  1607  063E                     l1624:
  1608  063E  0833               	movf	___flmul@temp,w
  1609  063F  00F9               	movwf	??___flmul
  1610  0640  0834               	movf	___flmul@temp+1,w
  1611  0641  00FA               	movwf	??___flmul+1
  1612  0642  01FB               	clrf	??___flmul+2
  1613  0643  01FC               	clrf	??___flmul+3
  1614  0644  0879               	movf	??___flmul,w
  1615  0645  07A9               	addwf	___flmul@grs,f
  1616  0646  087A               	movf	??___flmul+1,w
  1617  0647  1103               	clrz
  1618  0648  1803               	skipnc
  1619  0649  3E01               	addlw	1
  1620  064A  1903               	skipnz
  1621  064B  2E4D               	goto	u2301
  1622  064C  07AA               	addwf	___flmul@grs+1,f
  1623  064D                     u2301:
  1624  064D  087B               	movf	??___flmul+2,w
  1625  064E  1103               	clrz
  1626  064F  1803               	skipnc
  1627  0650  3E01               	addlw	1
  1628  0651  1903               	skipnz
  1629  0652  2E54               	goto	u2302
  1630  0653  07AB               	addwf	___flmul@grs+2,f
  1631  0654                     u2302:
  1632  0654  087C               	movf	??___flmul+3,w
  1633  0655  1103               	clrz
  1634  0656  1803               	skipnc
  1635  0657  3E01               	addlw	1
  1636  0658  1903               	skipnz
  1637  0659  2E5B               	goto	u2303
  1638  065A  07AC               	addwf	___flmul@grs+3,f
  1639  065B                     u2303:
  1640  065B                     l1626:
  1641  065B  0821               	movf	___flmul@b+1,w
  1642  065C  00F9               	movwf	??___flmul
  1643  065D  0879               	movf	??___flmul,w
  1644  065E  00F0               	movwf	__Umul8_16@multiplicand
  1645  065F  0826               	movf	___flmul@a+2,w
  1646  0660  120A  158A  2603  120A  118A  	fcall	__Umul8_16
  1647  0665  0871               	movf	?__Umul8_16+1,w
  1648  0666  1283               	bcf	3,5	;RP0=0, select bank0
  1649  0667  1303               	bcf	3,6	;RP1=0, select bank0
  1650  0668  00B4               	movwf	___flmul@temp+1
  1651  0669  0870               	movf	?__Umul8_16,w
  1652  066A  00B3               	movwf	___flmul@temp
  1653  066B  0833               	movf	___flmul@temp,w
  1654  066C  00F9               	movwf	??___flmul
  1655  066D  0834               	movf	___flmul@temp+1,w
  1656  066E  00FA               	movwf	??___flmul+1
  1657  066F  01FB               	clrf	??___flmul+2
  1658  0670  01FC               	clrf	??___flmul+3
  1659  0671  0879               	movf	??___flmul,w
  1660  0672  07AF               	addwf	___flmul@prod,f
  1661  0673  087A               	movf	??___flmul+1,w
  1662  0674  1103               	clrz
  1663  0675  1803               	skipnc
  1664  0676  3E01               	addlw	1
  1665  0677  1903               	skipnz
  1666  0678  2E7A               	goto	u2311
  1667  0679  07B0               	addwf	___flmul@prod+1,f
  1668  067A                     u2311:
  1669  067A  087B               	movf	??___flmul+2,w
  1670  067B  1103               	clrz
  1671  067C  1803               	skipnc
  1672  067D  3E01               	addlw	1
  1673  067E  1903               	skipnz
  1674  067F  2E81               	goto	u2312
  1675  0680  07B1               	addwf	___flmul@prod+2,f
  1676  0681                     u2312:
  1677  0681  087C               	movf	??___flmul+3,w
  1678  0682  1103               	clrz
  1679  0683  1803               	skipnc
  1680  0684  3E01               	addlw	1
  1681  0685  1903               	skipnz
  1682  0686  2E88               	goto	u2313
  1683  0687  07B2               	addwf	___flmul@prod+3,f
  1684  0688                     u2313:
  1685  0688                     l1628:
  1686  0688  0822               	movf	___flmul@b+2,w
  1687  0689  00F9               	movwf	??___flmul
  1688  068A  0879               	movf	??___flmul,w
  1689  068B  00F0               	movwf	__Umul8_16@multiplicand
  1690  068C  0825               	movf	___flmul@a+1,w
  1691  068D  120A  158A  2603  120A  118A  	fcall	__Umul8_16
  1692  0692  0871               	movf	?__Umul8_16+1,w
  1693  0693  1283               	bcf	3,5	;RP0=0, select bank0
  1694  0694  1303               	bcf	3,6	;RP1=0, select bank0
  1695  0695  00B4               	movwf	___flmul@temp+1
  1696  0696  0870               	movf	?__Umul8_16,w
  1697  0697  00B3               	movwf	___flmul@temp
  1698  0698                     l1630:
  1699  0698  0833               	movf	___flmul@temp,w
  1700  0699  00F9               	movwf	??___flmul
  1701  069A  0834               	movf	___flmul@temp+1,w
  1702  069B  00FA               	movwf	??___flmul+1
  1703  069C  01FB               	clrf	??___flmul+2
  1704  069D  01FC               	clrf	??___flmul+3
  1705  069E  0879               	movf	??___flmul,w
  1706  069F  07AF               	addwf	___flmul@prod,f
  1707  06A0  087A               	movf	??___flmul+1,w
  1708  06A1  1103               	clrz
  1709  06A2  1803               	skipnc
  1710  06A3  3E01               	addlw	1
  1711  06A4  1903               	skipnz
  1712  06A5  2EA7               	goto	u2321
  1713  06A6  07B0               	addwf	___flmul@prod+1,f
  1714  06A7                     u2321:
  1715  06A7  087B               	movf	??___flmul+2,w
  1716  06A8  1103               	clrz
  1717  06A9  1803               	skipnc
  1718  06AA  3E01               	addlw	1
  1719  06AB  1903               	skipnz
  1720  06AC  2EAE               	goto	u2322
  1721  06AD  07B1               	addwf	___flmul@prod+2,f
  1722  06AE                     u2322:
  1723  06AE  087C               	movf	??___flmul+3,w
  1724  06AF  1103               	clrz
  1725  06B0  1803               	skipnc
  1726  06B1  3E01               	addlw	1
  1727  06B2  1903               	skipnz
  1728  06B3  2EB5               	goto	u2323
  1729  06B4  07B2               	addwf	___flmul@prod+3,f
  1730  06B5                     u2323:
  1731  06B5  0822               	movf	___flmul@b+2,w
  1732  06B6  00F9               	movwf	??___flmul
  1733  06B7  0879               	movf	??___flmul,w
  1734  06B8  00F0               	movwf	__Umul8_16@multiplicand
  1735  06B9  0826               	movf	___flmul@a+2,w
  1736  06BA  120A  158A  2603  120A  118A  	fcall	__Umul8_16
  1737  06BF  0871               	movf	?__Umul8_16+1,w
  1738  06C0  1283               	bcf	3,5	;RP0=0, select bank0
  1739  06C1  1303               	bcf	3,6	;RP1=0, select bank0
  1740  06C2  00B4               	movwf	___flmul@temp+1
  1741  06C3  0870               	movf	?__Umul8_16,w
  1742  06C4  00B3               	movwf	___flmul@temp
  1743  06C5                     l1632:
  1744  06C5  0833               	movf	___flmul@temp,w
  1745  06C6  00F9               	movwf	??___flmul
  1746  06C7  0834               	movf	___flmul@temp+1,w
  1747  06C8  00FA               	movwf	??___flmul+1
  1748  06C9  01FB               	clrf	??___flmul+2
  1749  06CA  01FC               	clrf	??___flmul+3
  1750  06CB  3008               	movlw	8
  1751  06CC                     u2335:
  1752  06CC  1003               	clrc
  1753  06CD  0DF9               	rlf	??___flmul,f
  1754  06CE  0DFA               	rlf	??___flmul+1,f
  1755  06CF  0DFB               	rlf	??___flmul+2,f
  1756  06D0  0DFC               	rlf	??___flmul+3,f
  1757  06D1                     u2330:
  1758  06D1  3EFF               	addlw	-1
  1759  06D2  1D03               	skipz
  1760  06D3  2ECC               	goto	u2335
  1761  06D4  0879               	movf	??___flmul,w
  1762  06D5  07AF               	addwf	___flmul@prod,f
  1763  06D6  087A               	movf	??___flmul+1,w
  1764  06D7  1103               	clrz
  1765  06D8  1803               	skipnc
  1766  06D9  3E01               	addlw	1
  1767  06DA  1903               	skipnz
  1768  06DB  2EDD               	goto	u2341
  1769  06DC  07B0               	addwf	___flmul@prod+1,f
  1770  06DD                     u2341:
  1771  06DD  087B               	movf	??___flmul+2,w
  1772  06DE  1103               	clrz
  1773  06DF  1803               	skipnc
  1774  06E0  3E01               	addlw	1
  1775  06E1  1903               	skipnz
  1776  06E2  2EE4               	goto	u2342
  1777  06E3  07B1               	addwf	___flmul@prod+2,f
  1778  06E4                     u2342:
  1779  06E4  087C               	movf	??___flmul+3,w
  1780  06E5  1103               	clrz
  1781  06E6  1803               	skipnc
  1782  06E7  3E01               	addlw	1
  1783  06E8  1903               	skipnz
  1784  06E9  2EEB               	goto	u2343
  1785  06EA  07B2               	addwf	___flmul@prod+3,f
  1786  06EB                     u2343:
  1787  06EB                     l1634:
  1788  06EB  0829               	movf	___flmul@grs,w
  1789  06EC  00F9               	movwf	??___flmul
  1790  06ED  082A               	movf	___flmul@grs+1,w
  1791  06EE  00FA               	movwf	??___flmul+1
  1792  06EF  082B               	movf	___flmul@grs+2,w
  1793  06F0  00FB               	movwf	??___flmul+2
  1794  06F1  082C               	movf	___flmul@grs+3,w
  1795  06F2  00FC               	movwf	??___flmul+3
  1796  06F3  3018               	movlw	24
  1797  06F4                     u2355:
  1798  06F4  1003               	clrc
  1799  06F5  0CFC               	rrf	??___flmul+3,f
  1800  06F6  0CFB               	rrf	??___flmul+2,f
  1801  06F7  0CFA               	rrf	??___flmul+1,f
  1802  06F8  0CF9               	rrf	??___flmul,f
  1803  06F9                     u2350:
  1804  06F9  3EFF               	addlw	-1
  1805  06FA  1D03               	skipz
  1806  06FB  2EF4               	goto	u2355
  1807  06FC  0879               	movf	??___flmul,w
  1808  06FD  07AF               	addwf	___flmul@prod,f
  1809  06FE  087A               	movf	??___flmul+1,w
  1810  06FF  1103               	clrz
  1811  0700  1803               	skipnc
  1812  0701  3E01               	addlw	1
  1813  0702  1903               	skipnz
  1814  0703  2F05               	goto	u2361
  1815  0704  07B0               	addwf	___flmul@prod+1,f
  1816  0705                     u2361:
  1817  0705  087B               	movf	??___flmul+2,w
  1818  0706  1103               	clrz
  1819  0707  1803               	skipnc
  1820  0708  3E01               	addlw	1
  1821  0709  1903               	skipnz
  1822  070A  2F0C               	goto	u2362
  1823  070B  07B1               	addwf	___flmul@prod+2,f
  1824  070C                     u2362:
  1825  070C  087C               	movf	??___flmul+3,w
  1826  070D  1103               	clrz
  1827  070E  1803               	skipnc
  1828  070F  3E01               	addlw	1
  1829  0710  1903               	skipnz
  1830  0711  2F13               	goto	u2363
  1831  0712  07B2               	addwf	___flmul@prod+3,f
  1832  0713                     u2363:
  1833  0713                     l1636:
  1834  0713  3008               	movlw	8
  1835  0714  00F9               	movwf	??___flmul
  1836  0715                     u2375:
  1837  0715  1003               	clrc
  1838  0716  0DA9               	rlf	___flmul@grs,f
  1839  0717  0DAA               	rlf	___flmul@grs+1,f
  1840  0718  0DAB               	rlf	___flmul@grs+2,f
  1841  0719  0DAC               	rlf	___flmul@grs+3,f
  1842  071A  0BF9               	decfsz	??___flmul,f
  1843  071B  2F15               	goto	u2375
  1844  071C                     l1638:
  1845  071C  082E               	movf	___flmul@bexp,w
  1846  071D  072D               	addwf	___flmul@aexp,w
  1847  071E  00F9               	movwf	??___flmul
  1848  071F  01FA               	clrf	??___flmul+1
  1849  0720  0DFA               	rlf	??___flmul+1,f
  1850  0721  0879               	movf	??___flmul,w
  1851  0722  3E82               	addlw	130
  1852  0723  00B3               	movwf	___flmul@temp
  1853  0724  087A               	movf	??___flmul+1,w
  1854  0725  1803               	skipnc
  1855  0726  3E01               	addlw	1
  1856  0727  3EFF               	addlw	255
  1857  0728  00B4               	movwf	___flmul@temp+1
  1858  0729  2F47               	goto	l1650
  1859  072A                     l1640:
  1860  072A  3001               	movlw	1
  1861  072B  00F9               	movwf	??___flmul
  1862  072C                     u2385:
  1863  072C  1003               	clrc
  1864  072D  0DAF               	rlf	___flmul@prod,f
  1865  072E  0DB0               	rlf	___flmul@prod+1,f
  1866  072F  0DB1               	rlf	___flmul@prod+2,f
  1867  0730  0DB2               	rlf	___flmul@prod+3,f
  1868  0731  0BF9               	decfsz	??___flmul,f
  1869  0732  2F2C               	goto	u2385
  1870  0733                     l1642:
  1871  0733  1FAC               	btfss	___flmul@grs+3,7
  1872  0734  2F36               	goto	u2391
  1873  0735  2F37               	goto	u2390
  1874  0736                     u2391:
  1875  0736  2F38               	goto	l1646
  1876  0737                     u2390:
  1877  0737                     l1644:
  1878  0737  142F               	bsf	___flmul@prod,0
  1879  0738                     l1646:
  1880  0738  3001               	movlw	1
  1881  0739  00F9               	movwf	??___flmul
  1882  073A                     u2405:
  1883  073A  1003               	clrc
  1884  073B  0DA9               	rlf	___flmul@grs,f
  1885  073C  0DAA               	rlf	___flmul@grs+1,f
  1886  073D  0DAB               	rlf	___flmul@grs+2,f
  1887  073E  0DAC               	rlf	___flmul@grs+3,f
  1888  073F  0BF9               	decfsz	??___flmul,f
  1889  0740  2F3A               	goto	u2405
  1890  0741                     l1648:
  1891  0741  30FF               	movlw	255
  1892  0742  07B3               	addwf	___flmul@temp,f
  1893  0743  1803               	skipnc
  1894  0744  0AB4               	incf	___flmul@temp+1,f
  1895  0745  30FF               	movlw	255
  1896  0746  07B4               	addwf	___flmul@temp+1,f
  1897  0747                     l1650:
  1898  0747  1FB1               	btfss	___flmul@prod+2,7
  1899  0748  2F4A               	goto	u2411
  1900  0749  2F4B               	goto	u2410
  1901  074A                     u2411:
  1902  074A  2F2A               	goto	l1640
  1903  074B                     u2410:
  1904  074B                     l1652:
  1905  074B  01AD               	clrf	___flmul@aexp
  1906  074C                     l1654:
  1907  074C  1FAC               	btfss	___flmul@grs+3,7
  1908  074D  2F4F               	goto	u2421
  1909  074E  2F50               	goto	u2420
  1910  074F                     u2421:
  1911  074F  2F6C               	goto	l1662
  1912  0750                     u2420:
  1913  0750                     l1656:
  1914  0750  30FF               	movlw	255
  1915  0751  0529               	andwf	___flmul@grs,w
  1916  0752  00F9               	movwf	??___flmul
  1917  0753  30FF               	movlw	255
  1918  0754  052A               	andwf	___flmul@grs+1,w
  1919  0755  00FA               	movwf	??___flmul+1
  1920  0756  30FF               	movlw	255
  1921  0757  052B               	andwf	___flmul@grs+2,w
  1922  0758  00FB               	movwf	??___flmul+2
  1923  0759  307F               	movlw	127
  1924  075A  052C               	andwf	___flmul@grs+3,w
  1925  075B  00FC               	movwf	??___flmul+3
  1926  075C  087C               	movf	??___flmul+3,w
  1927  075D  047B               	iorwf	??___flmul+2,w
  1928  075E  047A               	iorwf	??___flmul+1,w
  1929  075F  0479               	iorwf	??___flmul,w
  1930  0760  1903               	skipnz
  1931  0761  2F63               	goto	u2431
  1932  0762  2F64               	goto	u2430
  1933  0763                     u2431:
  1934  0763  2F67               	goto	l511
  1935  0764                     u2430:
  1936  0764                     l1658:
  1937  0764  01AD               	clrf	___flmul@aexp
  1938  0765  0AAD               	incf	___flmul@aexp,f
  1939  0766  2F6C               	goto	l1662
  1940  0767                     l511:
  1941  0767  1C2F               	btfss	___flmul@prod,0
  1942  0768  2F6A               	goto	u2441
  1943  0769  2F6B               	goto	u2440
  1944  076A                     u2441:
  1945  076A  2F6C               	goto	l1662
  1946  076B                     u2440:
  1947  076B  2F64               	goto	l1658
  1948  076C                     l1662:
  1949  076C  082D               	movf	___flmul@aexp,w
  1950  076D  1903               	btfsc	3,2
  1951  076E  2F70               	goto	u2451
  1952  076F  2F71               	goto	u2450
  1953  0770                     u2451:
  1954  0770  2FA2               	goto	l1672
  1955  0771                     u2450:
  1956  0771                     l1664:
  1957  0771  3001               	movlw	1
  1958  0772  07AF               	addwf	___flmul@prod,f
  1959  0773  3000               	movlw	0
  1960  0774  1803               	skipnc
  1961  0775  3001               	movlw	1
  1962  0776  07B0               	addwf	___flmul@prod+1,f
  1963  0777  3000               	movlw	0
  1964  0778  1803               	skipnc
  1965  0779  3001               	movlw	1
  1966  077A  07B1               	addwf	___flmul@prod+2,f
  1967  077B  3000               	movlw	0
  1968  077C  1803               	skipnc
  1969  077D  3001               	movlw	1
  1970  077E  07B2               	addwf	___flmul@prod+3,f
  1971  077F                     l1666:
  1972  077F  1C32               	btfss	___flmul@prod+3,0
  1973  0780  2F82               	goto	u2461
  1974  0781  2F83               	goto	u2460
  1975  0782                     u2461:
  1976  0782  2FA2               	goto	l1672
  1977  0783                     u2460:
  1978  0783                     l1668:
  1979  0783  082F               	movf	___flmul@prod,w
  1980  0784  00F9               	movwf	??___flmul
  1981  0785  0830               	movf	___flmul@prod+1,w
  1982  0786  00FA               	movwf	??___flmul+1
  1983  0787  0831               	movf	___flmul@prod+2,w
  1984  0788  00FB               	movwf	??___flmul+2
  1985  0789  0832               	movf	___flmul@prod+3,w
  1986  078A  00FC               	movwf	??___flmul+3
  1987  078B  3001               	movlw	1
  1988  078C  00FD               	movwf	??___flmul+4
  1989  078D                     u2475:
  1990  078D  0D7C               	rlf	??___flmul+3,w
  1991  078E  0CFC               	rrf	??___flmul+3,f
  1992  078F  0CFB               	rrf	??___flmul+2,f
  1993  0790  0CFA               	rrf	??___flmul+1,f
  1994  0791  0CF9               	rrf	??___flmul,f
  1995  0792                     u2470:
  1996  0792  0BFD               	decfsz	??___flmul+4,f
  1997  0793  2F8D               	goto	u2475
  1998  0794  087C               	movf	??___flmul+3,w
  1999  0795  00B2               	movwf	___flmul@prod+3
  2000  0796  087B               	movf	??___flmul+2,w
  2001  0797  00B1               	movwf	___flmul@prod+2
  2002  0798  087A               	movf	??___flmul+1,w
  2003  0799  00B0               	movwf	___flmul@prod+1
  2004  079A  0879               	movf	??___flmul,w
  2005  079B  00AF               	movwf	___flmul@prod
  2006  079C                     l1670:
  2007  079C  3001               	movlw	1
  2008  079D  07B3               	addwf	___flmul@temp,f
  2009  079E  1803               	skipnc
  2010  079F  0AB4               	incf	___flmul@temp+1,f
  2011  07A0  3000               	movlw	0
  2012  07A1  07B4               	addwf	___flmul@temp+1,f
  2013  07A2                     l1672:
  2014  07A2  0834               	movf	___flmul@temp+1,w
  2015  07A3  3A80               	xorlw	128
  2016  07A4  00FF               	movwf	btemp+1
  2017  07A5  3080               	movlw	128
  2018  07A6  027F               	subwf	btemp+1,w
  2019  07A7  1D03               	skipz
  2020  07A8  2FAB               	goto	u2485
  2021  07A9  30FF               	movlw	255
  2022  07AA  0233               	subwf	___flmul@temp,w
  2023  07AB                     u2485:
  2024  07AB  1C03               	skipc
  2025  07AC  2FAE               	goto	u2481
  2026  07AD  2FAF               	goto	u2480
  2027  07AE                     u2481:
  2028  07AE  2FBA               	goto	l1676
  2029  07AF                     u2480:
  2030  07AF                     l1674:
  2031  07AF  307F               	movlw	127
  2032  07B0  1283               	bcf	3,5	;RP0=0, select bank0
  2033  07B1  1303               	bcf	3,6	;RP1=0, select bank0
  2034  07B2  00B2               	movwf	___flmul@prod+3
  2035  07B3  3080               	movlw	128
  2036  07B4  00B1               	movwf	___flmul@prod+2
  2037  07B5  3000               	movlw	0
  2038  07B6  00B0               	movwf	___flmul@prod+1
  2039  07B7  3000               	movlw	0
  2040  07B8  00AF               	movwf	___flmul@prod
  2041  07B9  2FEF               	goto	l517
  2042  07BA                     l1676:
  2043  07BA  1283               	bcf	3,5	;RP0=0, select bank0
  2044  07BB  1303               	bcf	3,6	;RP1=0, select bank0
  2045  07BC  0834               	movf	___flmul@temp+1,w
  2046  07BD  3A80               	xorlw	128
  2047  07BE  00FF               	movwf	btemp+1
  2048  07BF  3080               	movlw	128
  2049  07C0  027F               	subwf	btemp+1,w
  2050  07C1  1D03               	skipz
  2051  07C2  2FC5               	goto	u2495
  2052  07C3  3001               	movlw	1
  2053  07C4  0233               	subwf	___flmul@temp,w
  2054  07C5                     u2495:
  2055  07C5  1803               	skipnc
  2056  07C6  2FC8               	goto	u2491
  2057  07C7  2FC9               	goto	u2490
  2058  07C8                     u2491:
  2059  07C8  2FD5               	goto	l1682
  2060  07C9                     u2490:
  2061  07C9                     l1678:
  2062  07C9  3000               	movlw	0
  2063  07CA  1283               	bcf	3,5	;RP0=0, select bank0
  2064  07CB  1303               	bcf	3,6	;RP1=0, select bank0
  2065  07CC  00B2               	movwf	___flmul@prod+3
  2066  07CD  3000               	movlw	0
  2067  07CE  00B1               	movwf	___flmul@prod+2
  2068  07CF  3000               	movlw	0
  2069  07D0  00B0               	movwf	___flmul@prod+1
  2070  07D1  3000               	movlw	0
  2071  07D2  00AF               	movwf	___flmul@prod
  2072  07D3                     l1680:
  2073  07D3  01A8               	clrf	___flmul@sign
  2074  07D4  2FEF               	goto	l517
  2075  07D5                     l1682:
  2076  07D5  1283               	bcf	3,5	;RP0=0, select bank0
  2077  07D6  1303               	bcf	3,6	;RP1=0, select bank0
  2078  07D7  0833               	movf	___flmul@temp,w
  2079  07D8  00F9               	movwf	??___flmul
  2080  07D9  0879               	movf	??___flmul,w
  2081  07DA  00AE               	movwf	___flmul@bexp
  2082  07DB  30FF               	movlw	255
  2083  07DC  05AF               	andwf	___flmul@prod,f
  2084  07DD  30FF               	movlw	255
  2085  07DE  05B0               	andwf	___flmul@prod+1,f
  2086  07DF  307F               	movlw	127
  2087  07E0  05B1               	andwf	___flmul@prod+2,f
  2088  07E1  3000               	movlw	0
  2089  07E2  05B2               	andwf	___flmul@prod+3,f
  2090  07E3                     l1684:
  2091  07E3  1C2E               	btfss	___flmul@bexp,0
  2092  07E4  2FE6               	goto	u2501
  2093  07E5  2FE7               	goto	u2500
  2094  07E6                     u2501:
  2095  07E6  2FE8               	goto	l1688
  2096  07E7                     u2500:
  2097  07E7                     l1686:
  2098  07E7  17B1               	bsf	___flmul@prod+2,7
  2099  07E8                     l1688:
  2100  07E8  082E               	movf	___flmul@bexp,w
  2101  07E9  00F9               	movwf	??___flmul
  2102  07EA  1003               	clrc
  2103  07EB  0C79               	rrf	??___flmul,w
  2104  07EC  00FA               	movwf	??___flmul+1
  2105  07ED  087A               	movf	??___flmul+1,w
  2106  07EE  00B2               	movwf	___flmul@prod+3
  2107  07EF                     l517:
  2108  07EF  0828               	movf	___flmul@sign,w
  2109  07F0  00F9               	movwf	??___flmul
  2110  07F1  0879               	movf	??___flmul,w
  2111  07F2  04B2               	iorwf	___flmul@prod+3,f
  2112  07F3                     l1690:
  2113  07F3  0832               	movf	___flmul@prod+3,w
  2114  07F4  00A3               	movwf	?___flmul+3
  2115  07F5  0831               	movf	___flmul@prod+2,w
  2116  07F6  00A2               	movwf	?___flmul+2
  2117  07F7  0830               	movf	___flmul@prod+1,w
  2118  07F8  00A1               	movwf	?___flmul+1
  2119  07F9  082F               	movf	___flmul@prod,w
  2120  07FA  00A0               	movwf	?___flmul
  2121  07FB                     l505:
  2122  07FB  0008               	return
  2123  07FC                     __end_of___flmul:
  2124                           
  2125                           	psect	text5
  2126  0E03                     __ptext5:	
  2127 ;; *************** function __Umul8_16 *****************
  2128 ;; Defined at:
  2129 ;;		line 4 in file "C:\Program Files\Microchip\xc8\v2.30\pic\sources\c90\common\Umul8_16.c"
  2130 ;; Parameters:    Size  Location     Type
  2131 ;;  multiplier      1    wreg     unsigned char 
  2132 ;;  multiplicand    1    0[COMMON] unsigned char 
  2133 ;; Auto vars:     Size  Location     Type
  2134 ;;  multiplier      1    8[COMMON] unsigned char 
  2135 ;;  word_mpld       2    6[COMMON] unsigned int 
  2136 ;;  product         2    4[COMMON] unsigned int 
  2137 ;; Return value:  Size  Location     Type
  2138 ;;                  2    0[COMMON] unsigned int 
  2139 ;; Registers used:
  2140 ;;		wreg, status,2, status,0
  2141 ;; Tracked objects:
  2142 ;;		On entry : 0/0
  2143 ;;		On exit  : 0/0
  2144 ;;		Unchanged: 0/0
  2145 ;; Data sizes:     COMMON   BANK0   BANK1   BANK3   BANK2
  2146 ;;      Params:         2       0       0       0       0
  2147 ;;      Locals:         5       0       0       0       0
  2148 ;;      Temps:          2       0       0       0       0
  2149 ;;      Totals:         9       0       0       0       0
  2150 ;;Total ram usage:        9 bytes
  2151 ;; Hardware stack levels used:    1
  2152 ;; This function calls:
  2153 ;;		Nothing
  2154 ;; This function is called by:
  2155 ;;		___flmul
  2156 ;; This function uses a non-reentrant model
  2157 ;;
  2158                           
  2159                           
  2160                           ;psect for function __Umul8_16
  2161  0E03                     __Umul8_16:
  2162                           
  2163                           ;incstack = 0
  2164                           ; Regs used in __Umul8_16: [wreg+status,2+status,0]
  2165                           ;__Umul8_16@multiplier stored from wreg
  2166  0E03  00F8               	movwf	__Umul8_16@multiplier
  2167  0E04                     l1168:
  2168  0E04  01F4               	clrf	__Umul8_16@product
  2169  0E05  01F5               	clrf	__Umul8_16@product+1
  2170  0E06                     l1170:
  2171  0E06  0870               	movf	__Umul8_16@multiplicand,w
  2172  0E07  00F2               	movwf	??__Umul8_16
  2173  0E08  01F3               	clrf	??__Umul8_16+1
  2174  0E09  0872               	movf	??__Umul8_16,w
  2175  0E0A  00F6               	movwf	__Umul8_16@word_mpld
  2176  0E0B  0873               	movf	??__Umul8_16+1,w
  2177  0E0C  00F7               	movwf	__Umul8_16@word_mpld+1
  2178  0E0D                     l1172:
  2179  0E0D  1C78               	btfss	__Umul8_16@multiplier,0
  2180  0E0E  2E10               	goto	u1261
  2181  0E0F  2E11               	goto	u1260
  2182  0E10                     u1261:
  2183  0E10  2E17               	goto	l524
  2184  0E11                     u1260:
  2185  0E11                     l1174:
  2186  0E11  0876               	movf	__Umul8_16@word_mpld,w
  2187  0E12  07F4               	addwf	__Umul8_16@product,f
  2188  0E13  1803               	skipnc
  2189  0E14  0AF5               	incf	__Umul8_16@product+1,f
  2190  0E15  0877               	movf	__Umul8_16@word_mpld+1,w
  2191  0E16  07F5               	addwf	__Umul8_16@product+1,f
  2192  0E17                     l524:
  2193  0E17  3001               	movlw	1
  2194  0E18                     u1275:
  2195  0E18  1003               	clrc
  2196  0E19  0DF6               	rlf	__Umul8_16@word_mpld,f
  2197  0E1A  0DF7               	rlf	__Umul8_16@word_mpld+1,f
  2198  0E1B  3EFF               	addlw	-1
  2199  0E1C  1D03               	skipz
  2200  0E1D  2E18               	goto	u1275
  2201  0E1E  1003               	clrc
  2202  0E1F  0CF8               	rrf	__Umul8_16@multiplier,f
  2203  0E20                     l1176:
  2204  0E20  0878               	movf	__Umul8_16@multiplier,w
  2205  0E21  1D03               	btfss	3,2
  2206  0E22  2E24               	goto	u1281
  2207  0E23  2E25               	goto	u1280
  2208  0E24                     u1281:
  2209  0E24  2E0D               	goto	l1172
  2210  0E25                     u1280:
  2211  0E25                     l1178:
  2212  0E25  0875               	movf	__Umul8_16@product+1,w
  2213  0E26  00F1               	movwf	?__Umul8_16+1
  2214  0E27  0874               	movf	__Umul8_16@product,w
  2215  0E28  00F0               	movwf	?__Umul8_16
  2216  0E29                     l526:
  2217  0E29  0008               	return
  2218  0E2A                     __end_of__Umul8_16:
  2219                           
  2220                           	psect	text6
  2221  0036                     __ptext6:	
  2222 ;; *************** function ___fldiv *****************
  2223 ;; Defined at:
  2224 ;;		line 8 in file "C:\Program Files\Microchip\xc8\v2.30\pic\sources\c90\common\sprcdiv.c"
  2225 ;; Parameters:    Size  Location     Type
  2226 ;;  a               4   21[BANK0 ] unsigned int 
  2227 ;;  b               4   25[BANK0 ] unsigned int 
  2228 ;; Auto vars:     Size  Location     Type
  2229 ;;  grs             4   41[BANK0 ] unsigned long 
  2230 ;;  rem             4   34[BANK0 ] unsigned long 
  2231 ;;  new_exp         2   39[BANK0 ] int 
  2232 ;;  aexp            1   46[BANK0 ] unsigned char 
  2233 ;;  bexp            1   45[BANK0 ] unsigned char 
  2234 ;;  sign            1   38[BANK0 ] unsigned char 
  2235 ;; Return value:  Size  Location     Type
  2236 ;;                  4   21[BANK0 ] unsigned char 
  2237 ;; Registers used:
  2238 ;;		wreg, status,2, status,0, btemp+1
  2239 ;; Tracked objects:
  2240 ;;		On entry : 0/0
  2241 ;;		On exit  : 0/0
  2242 ;;		Unchanged: 0/0
  2243 ;; Data sizes:     COMMON   BANK0   BANK1   BANK3   BANK2
  2244 ;;      Params:         0       8       0       0       0
  2245 ;;      Locals:         0      13       0       0       0
  2246 ;;      Temps:          0       5       0       0       0
  2247 ;;      Totals:         0      26       0       0       0
  2248 ;;Total ram usage:       26 bytes
  2249 ;; Hardware stack levels used:    1
  2250 ;; This function calls:
  2251 ;;		Nothing
  2252 ;; This function is called by:
  2253 ;;		_startPWM1
  2254 ;;		_startPWM2
  2255 ;; This function uses a non-reentrant model
  2256 ;;
  2257                           
  2258                           
  2259                           ;psect for function ___fldiv
  2260  0036                     ___fldiv:
  2261  0036                     l1412:	
  2262                           ;incstack = 0
  2263                           ; Regs used in ___fldiv: [wreg+status,2+status,0+btemp+1]
  2264                           
  2265  0036  1283               	bcf	3,5	;RP0=0, select bank0
  2266  0037  1303               	bcf	3,6	;RP1=0, select bank0
  2267  0038  083C               	movf	___fldiv@b+3,w
  2268  0039  3980               	andlw	128
  2269  003A  00BD               	movwf	??___fldiv
  2270  003B  083D               	movf	??___fldiv,w
  2271  003C  00C6               	movwf	___fldiv@sign
  2272  003D                     l1414:
  2273  003D  083C               	movf	___fldiv@b+3,w
  2274  003E  00BD               	movwf	??___fldiv
  2275  003F  073D               	addwf	??___fldiv,w
  2276  0040  00BE               	movwf	??___fldiv+1
  2277  0041  083E               	movf	??___fldiv+1,w
  2278  0042  00CD               	movwf	___fldiv@bexp
  2279  0043                     l1416:
  2280  0043  1FBB               	btfss	___fldiv@b+2,7
  2281  0044  2846               	goto	u1851
  2282  0045  2847               	goto	u1850
  2283  0046                     u1851:
  2284  0046  2848               	goto	l1420
  2285  0047                     u1850:
  2286  0047                     l1418:
  2287  0047  144D               	bsf	___fldiv@bexp,0
  2288  0048                     l1420:
  2289  0048  084D               	movf	___fldiv@bexp,w
  2290  0049  1903               	btfsc	3,2
  2291  004A  284C               	goto	u1861
  2292  004B  284D               	goto	u1860
  2293  004C                     u1861:
  2294  004C  285D               	goto	l1430
  2295  004D                     u1860:
  2296  004D                     l1422:
  2297  004D  0A4D               	incf	___fldiv@bexp,w
  2298  004E  1D03               	btfss	3,2
  2299  004F  2851               	goto	u1871
  2300  0050  2852               	goto	u1870
  2301  0051                     u1871:
  2302  0051  285A               	goto	l1426
  2303  0052                     u1870:
  2304  0052                     l1424:
  2305  0052  3000               	movlw	0
  2306  0053  00BC               	movwf	___fldiv@b+3
  2307  0054  3000               	movlw	0
  2308  0055  00BB               	movwf	___fldiv@b+2
  2309  0056  3000               	movlw	0
  2310  0057  00BA               	movwf	___fldiv@b+1
  2311  0058  3000               	movlw	0
  2312  0059  00B9               	movwf	___fldiv@b
  2313  005A                     l1426:
  2314  005A  17BB               	bsf	___fldiv@b+2,7
  2315  005B                     l1428:
  2316  005B  01BC               	clrf	___fldiv@b+3
  2317  005C  2865               	goto	l1432
  2318  005D                     l1430:
  2319  005D  3000               	movlw	0
  2320  005E  00BC               	movwf	___fldiv@b+3
  2321  005F  3000               	movlw	0
  2322  0060  00BB               	movwf	___fldiv@b+2
  2323  0061  3000               	movlw	0
  2324  0062  00BA               	movwf	___fldiv@b+1
  2325  0063  3000               	movlw	0
  2326  0064  00B9               	movwf	___fldiv@b
  2327  0065                     l1432:
  2328  0065  0838               	movf	___fldiv@a+3,w
  2329  0066  3980               	andlw	128
  2330  0067  00BD               	movwf	??___fldiv
  2331  0068  083D               	movf	??___fldiv,w
  2332  0069  06C6               	xorwf	___fldiv@sign,f
  2333  006A                     l1434:
  2334  006A  0838               	movf	___fldiv@a+3,w
  2335  006B  00BD               	movwf	??___fldiv
  2336  006C  073D               	addwf	??___fldiv,w
  2337  006D  00BE               	movwf	??___fldiv+1
  2338  006E  083E               	movf	??___fldiv+1,w
  2339  006F  00CE               	movwf	___fldiv@aexp
  2340  0070                     l1436:
  2341  0070  1FB7               	btfss	___fldiv@a+2,7
  2342  0071  2873               	goto	u1881
  2343  0072  2874               	goto	u1880
  2344  0073                     u1881:
  2345  0073  2875               	goto	l1440
  2346  0074                     u1880:
  2347  0074                     l1438:
  2348  0074  144E               	bsf	___fldiv@aexp,0
  2349  0075                     l1440:
  2350  0075  084E               	movf	___fldiv@aexp,w
  2351  0076  1903               	btfsc	3,2
  2352  0077  2879               	goto	u1891
  2353  0078  287A               	goto	u1890
  2354  0079                     u1891:
  2355  0079  288A               	goto	l1450
  2356  007A                     u1890:
  2357  007A                     l1442:
  2358  007A  0A4E               	incf	___fldiv@aexp,w
  2359  007B  1D03               	btfss	3,2
  2360  007C  287E               	goto	u1901
  2361  007D  287F               	goto	u1900
  2362  007E                     u1901:
  2363  007E  2887               	goto	l1446
  2364  007F                     u1900:
  2365  007F                     l1444:
  2366  007F  3000               	movlw	0
  2367  0080  00B8               	movwf	___fldiv@a+3
  2368  0081  3000               	movlw	0
  2369  0082  00B7               	movwf	___fldiv@a+2
  2370  0083  3000               	movlw	0
  2371  0084  00B6               	movwf	___fldiv@a+1
  2372  0085  3000               	movlw	0
  2373  0086  00B5               	movwf	___fldiv@a
  2374  0087                     l1446:
  2375  0087  17B7               	bsf	___fldiv@a+2,7
  2376  0088                     l1448:
  2377  0088  01B8               	clrf	___fldiv@a+3
  2378  0089  2892               	goto	l465
  2379  008A                     l1450:
  2380  008A  3000               	movlw	0
  2381  008B  00B8               	movwf	___fldiv@a+3
  2382  008C  3000               	movlw	0
  2383  008D  00B7               	movwf	___fldiv@a+2
  2384  008E  3000               	movlw	0
  2385  008F  00B6               	movwf	___fldiv@a+1
  2386  0090  3000               	movlw	0
  2387  0091  00B5               	movwf	___fldiv@a
  2388  0092                     l465:
  2389  0092  0838               	movf	___fldiv@a+3,w
  2390  0093  0437               	iorwf	___fldiv@a+2,w
  2391  0094  0436               	iorwf	___fldiv@a+1,w
  2392  0095  0435               	iorwf	___fldiv@a,w
  2393  0096  1D03               	skipz
  2394  0097  2899               	goto	u1911
  2395  0098  289A               	goto	u1910
  2396  0099                     u1911:
  2397  0099  28B3               	goto	l1460
  2398  009A                     u1910:
  2399  009A                     l1452:
  2400  009A  3000               	movlw	0
  2401  009B  00BC               	movwf	___fldiv@b+3
  2402  009C  3000               	movlw	0
  2403  009D  00BB               	movwf	___fldiv@b+2
  2404  009E  3000               	movlw	0
  2405  009F  00BA               	movwf	___fldiv@b+1
  2406  00A0  3000               	movlw	0
  2407  00A1  00B9               	movwf	___fldiv@b
  2408  00A2  3080               	movlw	128
  2409  00A3  04BB               	iorwf	___fldiv@b+2,f
  2410  00A4  307F               	movlw	127
  2411  00A5  04BC               	iorwf	___fldiv@b+3,f
  2412  00A6                     l1454:
  2413  00A6  0846               	movf	___fldiv@sign,w
  2414  00A7  00BD               	movwf	??___fldiv
  2415  00A8  083D               	movf	??___fldiv,w
  2416  00A9  04BC               	iorwf	___fldiv@b+3,f
  2417  00AA                     l1456:
  2418  00AA  083C               	movf	___fldiv@b+3,w
  2419  00AB  00B8               	movwf	?___fldiv+3
  2420  00AC  083B               	movf	___fldiv@b+2,w
  2421  00AD  00B7               	movwf	?___fldiv+2
  2422  00AE  083A               	movf	___fldiv@b+1,w
  2423  00AF  00B6               	movwf	?___fldiv+1
  2424  00B0  0839               	movf	___fldiv@b,w
  2425  00B1  00B5               	movwf	?___fldiv
  2426  00B2  2A12               	goto	l467
  2427  00B3                     l1460:
  2428  00B3  084D               	movf	___fldiv@bexp,w
  2429  00B4  1D03               	btfss	3,2
  2430  00B5  28B7               	goto	u1921
  2431  00B6  28B8               	goto	u1920
  2432  00B7                     u1921:
  2433  00B7  28C1               	goto	l1466
  2434  00B8                     u1920:
  2435  00B8                     l1462:
  2436  00B8  3000               	movlw	0
  2437  00B9  00B8               	movwf	?___fldiv+3
  2438  00BA  3000               	movlw	0
  2439  00BB  00B7               	movwf	?___fldiv+2
  2440  00BC  3000               	movlw	0
  2441  00BD  00B6               	movwf	?___fldiv+1
  2442  00BE  3000               	movlw	0
  2443  00BF  00B5               	movwf	?___fldiv
  2444  00C0  2A12               	goto	l467
  2445  00C1                     l1466:
  2446  00C1  084D               	movf	___fldiv@bexp,w
  2447  00C2  00BD               	movwf	??___fldiv
  2448  00C3  01BE               	clrf	??___fldiv+1
  2449  00C4  083E               	movf	??___fldiv+1,w
  2450  00C5  00C0               	movwf	??___fldiv+3
  2451  00C6  084E               	movf	___fldiv@aexp,w
  2452  00C7  023D               	subwf	??___fldiv,w
  2453  00C8  00BF               	movwf	??___fldiv+2
  2454  00C9  1C03               	skipc
  2455  00CA  03C0               	decf	??___fldiv+3,f
  2456  00CB  083F               	movf	??___fldiv+2,w
  2457  00CC  3E7F               	addlw	127
  2458  00CD  00C7               	movwf	___fldiv@new_exp
  2459  00CE  0840               	movf	??___fldiv+3,w
  2460  00CF  1803               	skipnc
  2461  00D0  3E01               	addlw	1
  2462  00D1  3E00               	addlw	0
  2463  00D2  00C8               	movwf	___fldiv@new_exp+1
  2464  00D3                     l1468:
  2465  00D3  083C               	movf	___fldiv@b+3,w
  2466  00D4  00C5               	movwf	___fldiv@rem+3
  2467  00D5  083B               	movf	___fldiv@b+2,w
  2468  00D6  00C4               	movwf	___fldiv@rem+2
  2469  00D7  083A               	movf	___fldiv@b+1,w
  2470  00D8  00C3               	movwf	___fldiv@rem+1
  2471  00D9  0839               	movf	___fldiv@b,w
  2472  00DA  00C2               	movwf	___fldiv@rem
  2473  00DB                     l1470:
  2474  00DB  3000               	movlw	0
  2475  00DC  00BC               	movwf	___fldiv@b+3
  2476  00DD  3000               	movlw	0
  2477  00DE  00BB               	movwf	___fldiv@b+2
  2478  00DF  3000               	movlw	0
  2479  00E0  00BA               	movwf	___fldiv@b+1
  2480  00E1  3000               	movlw	0
  2481  00E2  00B9               	movwf	___fldiv@b
  2482  00E3                     l1472:
  2483  00E3  3000               	movlw	0
  2484  00E4  00CC               	movwf	___fldiv@grs+3
  2485  00E5  3000               	movlw	0
  2486  00E6  00CB               	movwf	___fldiv@grs+2
  2487  00E7  3000               	movlw	0
  2488  00E8  00CA               	movwf	___fldiv@grs+1
  2489  00E9  3000               	movlw	0
  2490  00EA  00C9               	movwf	___fldiv@grs
  2491  00EB                     l1474:
  2492  00EB  01CE               	clrf	___fldiv@aexp
  2493  00EC  2937               	goto	l1494
  2494  00ED                     l1476:
  2495  00ED  084E               	movf	___fldiv@aexp,w
  2496  00EE  1903               	btfsc	3,2
  2497  00EF  28F1               	goto	u1931
  2498  00F0  28F2               	goto	u1930
  2499  00F1                     u1931:
  2500  00F1  2912               	goto	l1486
  2501  00F2                     u1930:
  2502  00F2                     l1478:
  2503  00F2  3001               	movlw	1
  2504  00F3  00BD               	movwf	??___fldiv
  2505  00F4                     u1945:
  2506  00F4  1003               	clrc
  2507  00F5  0DC2               	rlf	___fldiv@rem,f
  2508  00F6  0DC3               	rlf	___fldiv@rem+1,f
  2509  00F7  0DC4               	rlf	___fldiv@rem+2,f
  2510  00F8  0DC5               	rlf	___fldiv@rem+3,f
  2511  00F9  0BBD               	decfsz	??___fldiv,f
  2512  00FA  28F4               	goto	u1945
  2513  00FB  3001               	movlw	1
  2514  00FC  00BD               	movwf	??___fldiv
  2515  00FD                     u1955:
  2516  00FD  1003               	clrc
  2517  00FE  0DB9               	rlf	___fldiv@b,f
  2518  00FF  0DBA               	rlf	___fldiv@b+1,f
  2519  0100  0DBB               	rlf	___fldiv@b+2,f
  2520  0101  0DBC               	rlf	___fldiv@b+3,f
  2521  0102  0BBD               	decfsz	??___fldiv,f
  2522  0103  28FD               	goto	u1955
  2523  0104                     l1480:
  2524  0104  1FCC               	btfss	___fldiv@grs+3,7
  2525  0105  2907               	goto	u1961
  2526  0106  2908               	goto	u1960
  2527  0107                     u1961:
  2528  0107  2909               	goto	l1484
  2529  0108                     u1960:
  2530  0108                     l1482:
  2531  0108  1439               	bsf	___fldiv@b,0
  2532  0109                     l1484:
  2533  0109  3001               	movlw	1
  2534  010A  00BD               	movwf	??___fldiv
  2535  010B                     u1975:
  2536  010B  1003               	clrc
  2537  010C  0DC9               	rlf	___fldiv@grs,f
  2538  010D  0DCA               	rlf	___fldiv@grs+1,f
  2539  010E  0DCB               	rlf	___fldiv@grs+2,f
  2540  010F  0DCC               	rlf	___fldiv@grs+3,f
  2541  0110  0BBD               	decfsz	??___fldiv,f
  2542  0111  290B               	goto	u1975
  2543  0112                     l1486:
  2544  0112  0838               	movf	___fldiv@a+3,w
  2545  0113  0245               	subwf	___fldiv@rem+3,w
  2546  0114  1D03               	skipz
  2547  0115  2920               	goto	u1985
  2548  0116  0837               	movf	___fldiv@a+2,w
  2549  0117  0244               	subwf	___fldiv@rem+2,w
  2550  0118  1D03               	skipz
  2551  0119  2920               	goto	u1985
  2552  011A  0836               	movf	___fldiv@a+1,w
  2553  011B  0243               	subwf	___fldiv@rem+1,w
  2554  011C  1D03               	skipz
  2555  011D  2920               	goto	u1985
  2556  011E  0835               	movf	___fldiv@a,w
  2557  011F  0242               	subwf	___fldiv@rem,w
  2558  0120                     u1985:
  2559  0120  1C03               	skipc
  2560  0121  2923               	goto	u1981
  2561  0122  2924               	goto	u1980
  2562  0123                     u1981:
  2563  0123  2933               	goto	l1492
  2564  0124                     u1980:
  2565  0124                     l1488:
  2566  0124  174C               	bsf	___fldiv@grs+3,6
  2567  0125                     l1490:
  2568  0125  0835               	movf	___fldiv@a,w
  2569  0126  02C2               	subwf	___fldiv@rem,f
  2570  0127  0836               	movf	___fldiv@a+1,w
  2571  0128  1C03               	skipc
  2572  0129  0F36               	incfsz	___fldiv@a+1,w
  2573  012A  02C3               	subwf	___fldiv@rem+1,f
  2574  012B  0837               	movf	___fldiv@a+2,w
  2575  012C  1C03               	skipc
  2576  012D  0F37               	incfsz	___fldiv@a+2,w
  2577  012E  02C4               	subwf	___fldiv@rem+2,f
  2578  012F  0838               	movf	___fldiv@a+3,w
  2579  0130  1C03               	skipc
  2580  0131  0F38               	incfsz	___fldiv@a+3,w
  2581  0132  02C5               	subwf	___fldiv@rem+3,f
  2582  0133                     l1492:
  2583  0133  3001               	movlw	1
  2584  0134  00BD               	movwf	??___fldiv
  2585  0135  083D               	movf	??___fldiv,w
  2586  0136  07CE               	addwf	___fldiv@aexp,f
  2587  0137                     l1494:
  2588  0137  301A               	movlw	26
  2589  0138  024E               	subwf	___fldiv@aexp,w
  2590  0139  1C03               	skipc
  2591  013A  293C               	goto	u1991
  2592  013B  293D               	goto	u1990
  2593  013C                     u1991:
  2594  013C  28ED               	goto	l1476
  2595  013D                     u1990:
  2596  013D                     l1496:
  2597  013D  0845               	movf	___fldiv@rem+3,w
  2598  013E  0444               	iorwf	___fldiv@rem+2,w
  2599  013F  0443               	iorwf	___fldiv@rem+1,w
  2600  0140  0442               	iorwf	___fldiv@rem,w
  2601  0141  1903               	skipnz
  2602  0142  2944               	goto	u2001
  2603  0143  2945               	goto	u2000
  2604  0144                     u2001:
  2605  0144  2964               	goto	l1510
  2606  0145                     u2000:
  2607  0145                     l1498:
  2608  0145  1449               	bsf	___fldiv@grs,0
  2609  0146  2964               	goto	l1510
  2610  0147                     l1500:
  2611  0147  3001               	movlw	1
  2612  0148  00BD               	movwf	??___fldiv
  2613  0149                     u2015:
  2614  0149  1003               	clrc
  2615  014A  0DB9               	rlf	___fldiv@b,f
  2616  014B  0DBA               	rlf	___fldiv@b+1,f
  2617  014C  0DBB               	rlf	___fldiv@b+2,f
  2618  014D  0DBC               	rlf	___fldiv@b+3,f
  2619  014E  0BBD               	decfsz	??___fldiv,f
  2620  014F  2949               	goto	u2015
  2621  0150                     l1502:
  2622  0150  1FCC               	btfss	___fldiv@grs+3,7
  2623  0151  2953               	goto	u2021
  2624  0152  2954               	goto	u2020
  2625  0153                     u2021:
  2626  0153  2955               	goto	l1506
  2627  0154                     u2020:
  2628  0154                     l1504:
  2629  0154  1439               	bsf	___fldiv@b,0
  2630  0155                     l1506:
  2631  0155  3001               	movlw	1
  2632  0156  00BD               	movwf	??___fldiv
  2633  0157                     u2035:
  2634  0157  1003               	clrc
  2635  0158  0DC9               	rlf	___fldiv@grs,f
  2636  0159  0DCA               	rlf	___fldiv@grs+1,f
  2637  015A  0DCB               	rlf	___fldiv@grs+2,f
  2638  015B  0DCC               	rlf	___fldiv@grs+3,f
  2639  015C  0BBD               	decfsz	??___fldiv,f
  2640  015D  2957               	goto	u2035
  2641  015E                     l1508:
  2642  015E  30FF               	movlw	255
  2643  015F  07C7               	addwf	___fldiv@new_exp,f
  2644  0160  1803               	skipnc
  2645  0161  0AC8               	incf	___fldiv@new_exp+1,f
  2646  0162  30FF               	movlw	255
  2647  0163  07C8               	addwf	___fldiv@new_exp+1,f
  2648  0164                     l1510:
  2649  0164  1FBB               	btfss	___fldiv@b+2,7
  2650  0165  2967               	goto	u2041
  2651  0166  2968               	goto	u2040
  2652  0167                     u2041:
  2653  0167  2947               	goto	l1500
  2654  0168                     u2040:
  2655  0168                     l1512:
  2656  0168  01CE               	clrf	___fldiv@aexp
  2657  0169                     l1514:
  2658  0169  1FCC               	btfss	___fldiv@grs+3,7
  2659  016A  296C               	goto	u2051
  2660  016B  296D               	goto	u2050
  2661  016C                     u2051:
  2662  016C  2989               	goto	l1522
  2663  016D                     u2050:
  2664  016D                     l1516:
  2665  016D  30FF               	movlw	255
  2666  016E  0549               	andwf	___fldiv@grs,w
  2667  016F  00BD               	movwf	??___fldiv
  2668  0170  30FF               	movlw	255
  2669  0171  054A               	andwf	___fldiv@grs+1,w
  2670  0172  00BE               	movwf	??___fldiv+1
  2671  0173  30FF               	movlw	255
  2672  0174  054B               	andwf	___fldiv@grs+2,w
  2673  0175  00BF               	movwf	??___fldiv+2
  2674  0176  307F               	movlw	127
  2675  0177  054C               	andwf	___fldiv@grs+3,w
  2676  0178  00C0               	movwf	??___fldiv+3
  2677  0179  0840               	movf	??___fldiv+3,w
  2678  017A  043F               	iorwf	??___fldiv+2,w
  2679  017B  043E               	iorwf	??___fldiv+1,w
  2680  017C  043D               	iorwf	??___fldiv,w
  2681  017D  1903               	skipnz
  2682  017E  2980               	goto	u2061
  2683  017F  2981               	goto	u2060
  2684  0180                     u2061:
  2685  0180  2984               	goto	l481
  2686  0181                     u2060:
  2687  0181                     l1518:
  2688  0181  01CE               	clrf	___fldiv@aexp
  2689  0182  0ACE               	incf	___fldiv@aexp,f
  2690  0183  2989               	goto	l1522
  2691  0184                     l481:
  2692  0184  1C39               	btfss	___fldiv@b,0
  2693  0185  2987               	goto	u2071
  2694  0186  2988               	goto	u2070
  2695  0187                     u2071:
  2696  0187  2989               	goto	l1522
  2697  0188                     u2070:
  2698  0188  2981               	goto	l1518
  2699  0189                     l1522:
  2700  0189  084E               	movf	___fldiv@aexp,w
  2701  018A  1903               	btfsc	3,2
  2702  018B  298D               	goto	u2081
  2703  018C  298E               	goto	u2080
  2704  018D                     u2081:
  2705  018D  29BF               	goto	l1532
  2706  018E                     u2080:
  2707  018E                     l1524:
  2708  018E  3001               	movlw	1
  2709  018F  07B9               	addwf	___fldiv@b,f
  2710  0190  3000               	movlw	0
  2711  0191  1803               	skipnc
  2712  0192  3001               	movlw	1
  2713  0193  07BA               	addwf	___fldiv@b+1,f
  2714  0194  3000               	movlw	0
  2715  0195  1803               	skipnc
  2716  0196  3001               	movlw	1
  2717  0197  07BB               	addwf	___fldiv@b+2,f
  2718  0198  3000               	movlw	0
  2719  0199  1803               	skipnc
  2720  019A  3001               	movlw	1
  2721  019B  07BC               	addwf	___fldiv@b+3,f
  2722  019C                     l1526:
  2723  019C  1C3C               	btfss	___fldiv@b+3,0
  2724  019D  299F               	goto	u2091
  2725  019E  29A0               	goto	u2090
  2726  019F                     u2091:
  2727  019F  29BF               	goto	l1532
  2728  01A0                     u2090:
  2729  01A0                     l1528:
  2730  01A0  0839               	movf	___fldiv@b,w
  2731  01A1  00BD               	movwf	??___fldiv
  2732  01A2  083A               	movf	___fldiv@b+1,w
  2733  01A3  00BE               	movwf	??___fldiv+1
  2734  01A4  083B               	movf	___fldiv@b+2,w
  2735  01A5  00BF               	movwf	??___fldiv+2
  2736  01A6  083C               	movf	___fldiv@b+3,w
  2737  01A7  00C0               	movwf	??___fldiv+3
  2738  01A8  3001               	movlw	1
  2739  01A9  00C1               	movwf	??___fldiv+4
  2740  01AA                     u2105:
  2741  01AA  0D40               	rlf	??___fldiv+3,w
  2742  01AB  0CC0               	rrf	??___fldiv+3,f
  2743  01AC  0CBF               	rrf	??___fldiv+2,f
  2744  01AD  0CBE               	rrf	??___fldiv+1,f
  2745  01AE  0CBD               	rrf	??___fldiv,f
  2746  01AF                     u2100:
  2747  01AF  0BC1               	decfsz	??___fldiv+4,f
  2748  01B0  29AA               	goto	u2105
  2749  01B1  0840               	movf	??___fldiv+3,w
  2750  01B2  00BC               	movwf	___fldiv@b+3
  2751  01B3  083F               	movf	??___fldiv+2,w
  2752  01B4  00BB               	movwf	___fldiv@b+2
  2753  01B5  083E               	movf	??___fldiv+1,w
  2754  01B6  00BA               	movwf	___fldiv@b+1
  2755  01B7  083D               	movf	??___fldiv,w
  2756  01B8  00B9               	movwf	___fldiv@b
  2757  01B9                     l1530:
  2758  01B9  3001               	movlw	1
  2759  01BA  07C7               	addwf	___fldiv@new_exp,f
  2760  01BB  1803               	skipnc
  2761  01BC  0AC8               	incf	___fldiv@new_exp+1,f
  2762  01BD  3000               	movlw	0
  2763  01BE  07C8               	addwf	___fldiv@new_exp+1,f
  2764  01BF                     l1532:
  2765  01BF  0848               	movf	___fldiv@new_exp+1,w
  2766  01C0  3A80               	xorlw	128
  2767  01C1  00FF               	movwf	btemp+1
  2768  01C2  3080               	movlw	128
  2769  01C3  027F               	subwf	btemp+1,w
  2770  01C4  1D03               	skipz
  2771  01C5  29C8               	goto	u2115
  2772  01C6  30FF               	movlw	255
  2773  01C7  0247               	subwf	___fldiv@new_exp,w
  2774  01C8                     u2115:
  2775  01C8  1C03               	skipc
  2776  01C9  29CB               	goto	u2111
  2777  01CA  29CC               	goto	u2110
  2778  01CB                     u2111:
  2779  01CB  29DA               	goto	l1536
  2780  01CC                     u2110:
  2781  01CC                     l1534:
  2782  01CC  30FF               	movlw	255
  2783  01CD  1283               	bcf	3,5	;RP0=0, select bank0
  2784  01CE  1303               	bcf	3,6	;RP1=0, select bank0
  2785  01CF  00C7               	movwf	___fldiv@new_exp
  2786  01D0  3000               	movlw	0
  2787  01D1  00C8               	movwf	___fldiv@new_exp+1
  2788  01D2  3000               	movlw	0
  2789  01D3  00BC               	movwf	___fldiv@b+3
  2790  01D4  3000               	movlw	0
  2791  01D5  00BB               	movwf	___fldiv@b+2
  2792  01D6  3000               	movlw	0
  2793  01D7  00BA               	movwf	___fldiv@b+1
  2794  01D8  3000               	movlw	0
  2795  01D9  00B9               	movwf	___fldiv@b
  2796  01DA                     l1536:
  2797  01DA  1283               	bcf	3,5	;RP0=0, select bank0
  2798  01DB  1303               	bcf	3,6	;RP1=0, select bank0
  2799  01DC  0848               	movf	___fldiv@new_exp+1,w
  2800  01DD  3A80               	xorlw	128
  2801  01DE  00FF               	movwf	btemp+1
  2802  01DF  3080               	movlw	128
  2803  01E0  027F               	subwf	btemp+1,w
  2804  01E1  1D03               	skipz
  2805  01E2  29E5               	goto	u2125
  2806  01E3  3001               	movlw	1
  2807  01E4  0247               	subwf	___fldiv@new_exp,w
  2808  01E5                     u2125:
  2809  01E5  1803               	skipnc
  2810  01E6  29E8               	goto	u2121
  2811  01E7  29E9               	goto	u2120
  2812  01E8                     u2121:
  2813  01E8  29F6               	goto	l487
  2814  01E9                     u2120:
  2815  01E9                     l1538:
  2816  01E9  1283               	bcf	3,5	;RP0=0, select bank0
  2817  01EA  1303               	bcf	3,6	;RP1=0, select bank0
  2818  01EB  01C7               	clrf	___fldiv@new_exp
  2819  01EC  01C8               	clrf	___fldiv@new_exp+1
  2820  01ED                     l1540:
  2821  01ED  3000               	movlw	0
  2822  01EE  00BC               	movwf	___fldiv@b+3
  2823  01EF  3000               	movlw	0
  2824  01F0  00BB               	movwf	___fldiv@b+2
  2825  01F1  3000               	movlw	0
  2826  01F2  00BA               	movwf	___fldiv@b+1
  2827  01F3  3000               	movlw	0
  2828  01F4  00B9               	movwf	___fldiv@b
  2829  01F5                     l1542:
  2830  01F5  01C6               	clrf	___fldiv@sign
  2831  01F6                     l487:
  2832  01F6  1283               	bcf	3,5	;RP0=0, select bank0
  2833  01F7  1303               	bcf	3,6	;RP1=0, select bank0
  2834  01F8  0847               	movf	___fldiv@new_exp,w
  2835  01F9  00BD               	movwf	??___fldiv
  2836  01FA  083D               	movf	??___fldiv,w
  2837  01FB  00CD               	movwf	___fldiv@bexp
  2838  01FC                     l1544:
  2839  01FC  1C4D               	btfss	___fldiv@bexp,0
  2840  01FD  29FF               	goto	u2131
  2841  01FE  2A00               	goto	u2130
  2842  01FF                     u2131:
  2843  01FF  2A02               	goto	l1548
  2844  0200                     u2130:
  2845  0200                     l1546:
  2846  0200  17BB               	bsf	___fldiv@b+2,7
  2847  0201  2A06               	goto	l489
  2848  0202                     l1548:
  2849  0202  307F               	movlw	127
  2850  0203  00BD               	movwf	??___fldiv
  2851  0204  083D               	movf	??___fldiv,w
  2852  0205  05BB               	andwf	___fldiv@b+2,f
  2853  0206                     l489:
  2854  0206  084D               	movf	___fldiv@bexp,w
  2855  0207  00BD               	movwf	??___fldiv
  2856  0208  1003               	clrc
  2857  0209  0C3D               	rrf	??___fldiv,w
  2858  020A  00BE               	movwf	??___fldiv+1
  2859  020B  083E               	movf	??___fldiv+1,w
  2860  020C  00BC               	movwf	___fldiv@b+3
  2861  020D  0846               	movf	___fldiv@sign,w
  2862  020E  00BD               	movwf	??___fldiv
  2863  020F  083D               	movf	??___fldiv,w
  2864  0210  04BC               	iorwf	___fldiv@b+3,f
  2865  0211  28AA               	goto	l1456
  2866  0212                     l467:
  2867  0212  0008               	return
  2868  0213                     __end_of___fldiv:
  2869                           
  2870                           	psect	text7
  2871  0213                     __ptext7:	
  2872 ;; *************** function ___fladd *****************
  2873 ;; Defined at:
  2874 ;;		line 10 in file "C:\Program Files\Microchip\xc8\v2.30\pic\sources\c90\common\sprcadd.c"
  2875 ;; Parameters:    Size  Location     Type
  2876 ;;  b               4   47[BANK0 ] unsigned char 
  2877 ;;  a               4   51[BANK0 ] unsigned char 
  2878 ;; Auto vars:     Size  Location     Type
  2879 ;;  grs             1   66[BANK0 ] unsigned char 
  2880 ;;  bexp            1   65[BANK0 ] unsigned char 
  2881 ;;  aexp            1   64[BANK0 ] unsigned char 
  2882 ;;  signs           1   63[BANK0 ] unsigned char 
  2883 ;; Return value:  Size  Location     Type
  2884 ;;                  4   47[BANK0 ] unsigned char 
  2885 ;; Registers used:
  2886 ;;		wreg, status,2, status,0, btemp+1
  2887 ;; Tracked objects:
  2888 ;;		On entry : 0/0
  2889 ;;		On exit  : 0/0
  2890 ;;		Unchanged: 0/0
  2891 ;; Data sizes:     COMMON   BANK0   BANK1   BANK3   BANK2
  2892 ;;      Params:         0       8       0       0       0
  2893 ;;      Locals:         0       4       0       0       0
  2894 ;;      Temps:          0       8       0       0       0
  2895 ;;      Totals:         0      20       0       0       0
  2896 ;;Total ram usage:       20 bytes
  2897 ;; Hardware stack levels used:    1
  2898 ;; This function calls:
  2899 ;;		Nothing
  2900 ;; This function is called by:
  2901 ;;		_startPWM1
  2902 ;;		_startPWM2
  2903 ;; This function uses a non-reentrant model
  2904 ;;
  2905                           
  2906                           
  2907                           ;psect for function ___fladd
  2908  0213                     ___fladd:
  2909  0213                     l1218:	
  2910                           ;incstack = 0
  2911                           ; Regs used in ___fladd: [wreg+status,2+status,0+btemp+1]
  2912                           
  2913  0213  1283               	bcf	3,5	;RP0=0, select bank0
  2914  0214  1303               	bcf	3,6	;RP1=0, select bank0
  2915  0215  0852               	movf	___fladd@b+3,w
  2916  0216  3980               	andlw	128
  2917  0217  00D7               	movwf	??___fladd
  2918  0218  0857               	movf	??___fladd,w
  2919  0219  00DF               	movwf	___fladd@signs
  2920  021A                     l1220:
  2921  021A  0852               	movf	___fladd@b+3,w
  2922  021B  00D7               	movwf	??___fladd
  2923  021C  0757               	addwf	??___fladd,w
  2924  021D  00D8               	movwf	??___fladd+1
  2925  021E  0858               	movf	??___fladd+1,w
  2926  021F  00E1               	movwf	___fladd@bexp
  2927  0220                     l1222:
  2928  0220  1FD1               	btfss	___fladd@b+2,7
  2929  0221  2A23               	goto	u1391
  2930  0222  2A24               	goto	u1390
  2931  0223                     u1391:
  2932  0223  2A25               	goto	l1226
  2933  0224                     u1390:
  2934  0224                     l1224:
  2935  0224  1461               	bsf	___fladd@bexp,0
  2936  0225                     l1226:
  2937  0225  0861               	movf	___fladd@bexp,w
  2938  0226  1903               	btfsc	3,2
  2939  0227  2A29               	goto	u1401
  2940  0228  2A2A               	goto	u1400
  2941  0229                     u1401:
  2942  0229  2A3A               	goto	l1236
  2943  022A                     u1400:
  2944  022A                     l1228:
  2945  022A  0A61               	incf	___fladd@bexp,w
  2946  022B  1D03               	btfss	3,2
  2947  022C  2A2E               	goto	u1411
  2948  022D  2A2F               	goto	u1410
  2949  022E                     u1411:
  2950  022E  2A37               	goto	l1232
  2951  022F                     u1410:
  2952  022F                     l1230:
  2953  022F  3000               	movlw	0
  2954  0230  00D2               	movwf	___fladd@b+3
  2955  0231  3000               	movlw	0
  2956  0232  00D1               	movwf	___fladd@b+2
  2957  0233  3000               	movlw	0
  2958  0234  00D0               	movwf	___fladd@b+1
  2959  0235  3000               	movlw	0
  2960  0236  00CF               	movwf	___fladd@b
  2961  0237                     l1232:
  2962  0237  17D1               	bsf	___fladd@b+2,7
  2963  0238                     l1234:
  2964  0238  01D2               	clrf	___fladd@b+3
  2965  0239  2A42               	goto	l1238
  2966  023A                     l1236:
  2967  023A  3000               	movlw	0
  2968  023B  00D2               	movwf	___fladd@b+3
  2969  023C  3000               	movlw	0
  2970  023D  00D1               	movwf	___fladd@b+2
  2971  023E  3000               	movlw	0
  2972  023F  00D0               	movwf	___fladd@b+1
  2973  0240  3000               	movlw	0
  2974  0241  00CF               	movwf	___fladd@b
  2975  0242                     l1238:
  2976  0242  0856               	movf	___fladd@a+3,w
  2977  0243  3980               	andlw	128
  2978  0244  00D7               	movwf	??___fladd
  2979  0245  0857               	movf	??___fladd,w
  2980  0246  00E0               	movwf	___fladd@aexp
  2981  0247                     l1240:
  2982  0247  0860               	movf	___fladd@aexp,w
  2983  0248  065F               	xorwf	___fladd@signs,w
  2984  0249  1903               	skipnz
  2985  024A  2A4C               	goto	u1421
  2986  024B  2A4D               	goto	u1420
  2987  024C                     u1421:
  2988  024C  2A4E               	goto	l1244
  2989  024D                     u1420:
  2990  024D                     l1242:
  2991  024D  175F               	bsf	___fladd@signs,6
  2992  024E                     l1244:
  2993  024E  0856               	movf	___fladd@a+3,w
  2994  024F  00D7               	movwf	??___fladd
  2995  0250  0757               	addwf	??___fladd,w
  2996  0251  00D8               	movwf	??___fladd+1
  2997  0252  0858               	movf	??___fladd+1,w
  2998  0253  00E0               	movwf	___fladd@aexp
  2999  0254                     l1246:
  3000  0254  1FD5               	btfss	___fladd@a+2,7
  3001  0255  2A57               	goto	u1431
  3002  0256  2A58               	goto	u1430
  3003  0257                     u1431:
  3004  0257  2A59               	goto	l1250
  3005  0258                     u1430:
  3006  0258                     l1248:
  3007  0258  1460               	bsf	___fladd@aexp,0
  3008  0259                     l1250:
  3009  0259  0860               	movf	___fladd@aexp,w
  3010  025A  1903               	btfsc	3,2
  3011  025B  2A5D               	goto	u1441
  3012  025C  2A5E               	goto	u1440
  3013  025D                     u1441:
  3014  025D  2A6E               	goto	l1260
  3015  025E                     u1440:
  3016  025E                     l1252:
  3017  025E  0A60               	incf	___fladd@aexp,w
  3018  025F  1D03               	btfss	3,2
  3019  0260  2A62               	goto	u1451
  3020  0261  2A63               	goto	u1450
  3021  0262                     u1451:
  3022  0262  2A6B               	goto	l1256
  3023  0263                     u1450:
  3024  0263                     l1254:
  3025  0263  3000               	movlw	0
  3026  0264  00D6               	movwf	___fladd@a+3
  3027  0265  3000               	movlw	0
  3028  0266  00D5               	movwf	___fladd@a+2
  3029  0267  3000               	movlw	0
  3030  0268  00D4               	movwf	___fladd@a+1
  3031  0269  3000               	movlw	0
  3032  026A  00D3               	movwf	___fladd@a
  3033  026B                     l1256:
  3034  026B  17D5               	bsf	___fladd@a+2,7
  3035  026C                     l1258:
  3036  026C  01D6               	clrf	___fladd@a+3
  3037  026D  2A76               	goto	l409
  3038  026E                     l1260:
  3039  026E  3000               	movlw	0
  3040  026F  00D6               	movwf	___fladd@a+3
  3041  0270  3000               	movlw	0
  3042  0271  00D5               	movwf	___fladd@a+2
  3043  0272  3000               	movlw	0
  3044  0273  00D4               	movwf	___fladd@a+1
  3045  0274  3000               	movlw	0
  3046  0275  00D3               	movwf	___fladd@a
  3047  0276                     l409:
  3048  0276  0861               	movf	___fladd@bexp,w
  3049  0277  0260               	subwf	___fladd@aexp,w
  3050  0278  1803               	skipnc
  3051  0279  2A7B               	goto	u1461
  3052  027A  2A7C               	goto	u1460
  3053  027B                     u1461:
  3054  027B  2AC0               	goto	l1296
  3055  027C                     u1460:
  3056  027C                     l1262:
  3057  027C  1F5F               	btfss	___fladd@signs,6
  3058  027D  2A7F               	goto	u1471
  3059  027E  2A80               	goto	u1470
  3060  027F                     u1471:
  3061  027F  2A84               	goto	l1266
  3062  0280                     u1470:
  3063  0280                     l1264:
  3064  0280  3080               	movlw	128
  3065  0281  00D7               	movwf	??___fladd
  3066  0282  0857               	movf	??___fladd,w
  3067  0283  06DF               	xorwf	___fladd@signs,f
  3068  0284                     l1266:
  3069  0284  0861               	movf	___fladd@bexp,w
  3070  0285  00D7               	movwf	??___fladd
  3071  0286  0857               	movf	??___fladd,w
  3072  0287  00E2               	movwf	___fladd@grs
  3073  0288                     l1268:
  3074  0288  0860               	movf	___fladd@aexp,w
  3075  0289  00D7               	movwf	??___fladd
  3076  028A  0857               	movf	??___fladd,w
  3077  028B  00E1               	movwf	___fladd@bexp
  3078  028C                     l1270:
  3079  028C  0862               	movf	___fladd@grs,w
  3080  028D  00D7               	movwf	??___fladd
  3081  028E  0857               	movf	??___fladd,w
  3082  028F  00E0               	movwf	___fladd@aexp
  3083  0290                     l1272:
  3084  0290  084F               	movf	___fladd@b,w
  3085  0291  00D7               	movwf	??___fladd
  3086  0292  0857               	movf	??___fladd,w
  3087  0293  00E2               	movwf	___fladd@grs
  3088  0294                     l1274:
  3089  0294  0853               	movf	___fladd@a,w
  3090  0295  00D7               	movwf	??___fladd
  3091  0296  0857               	movf	??___fladd,w
  3092  0297  00CF               	movwf	___fladd@b
  3093  0298                     l1276:
  3094  0298  0862               	movf	___fladd@grs,w
  3095  0299  00D7               	movwf	??___fladd
  3096  029A  0857               	movf	??___fladd,w
  3097  029B  00D3               	movwf	___fladd@a
  3098  029C                     l1278:
  3099  029C  0850               	movf	___fladd@b+1,w
  3100  029D  00D7               	movwf	??___fladd
  3101  029E  0857               	movf	??___fladd,w
  3102  029F  00E2               	movwf	___fladd@grs
  3103  02A0                     l1280:
  3104  02A0  0854               	movf	___fladd@a+1,w
  3105  02A1  00D7               	movwf	??___fladd
  3106  02A2  0857               	movf	??___fladd,w
  3107  02A3  00D0               	movwf	___fladd@b+1
  3108  02A4                     l1282:
  3109  02A4  0862               	movf	___fladd@grs,w
  3110  02A5  00D7               	movwf	??___fladd
  3111  02A6  0857               	movf	??___fladd,w
  3112  02A7  00D4               	movwf	___fladd@a+1
  3113  02A8                     l1284:
  3114  02A8  0851               	movf	___fladd@b+2,w
  3115  02A9  00D7               	movwf	??___fladd
  3116  02AA  0857               	movf	??___fladd,w
  3117  02AB  00E2               	movwf	___fladd@grs
  3118  02AC                     l1286:
  3119  02AC  0855               	movf	___fladd@a+2,w
  3120  02AD  00D7               	movwf	??___fladd
  3121  02AE  0857               	movf	??___fladd,w
  3122  02AF  00D1               	movwf	___fladd@b+2
  3123  02B0                     l1288:
  3124  02B0  0862               	movf	___fladd@grs,w
  3125  02B1  00D7               	movwf	??___fladd
  3126  02B2  0857               	movf	??___fladd,w
  3127  02B3  00D5               	movwf	___fladd@a+2
  3128  02B4                     l1290:
  3129  02B4  0852               	movf	___fladd@b+3,w
  3130  02B5  00D7               	movwf	??___fladd
  3131  02B6  0857               	movf	??___fladd,w
  3132  02B7  00E2               	movwf	___fladd@grs
  3133  02B8                     l1292:
  3134  02B8  0856               	movf	___fladd@a+3,w
  3135  02B9  00D7               	movwf	??___fladd
  3136  02BA  0857               	movf	??___fladd,w
  3137  02BB  00D2               	movwf	___fladd@b+3
  3138  02BC                     l1294:
  3139  02BC  0862               	movf	___fladd@grs,w
  3140  02BD  00D7               	movwf	??___fladd
  3141  02BE  0857               	movf	??___fladd,w
  3142  02BF  00D6               	movwf	___fladd@a+3
  3143  02C0                     l1296:
  3144  02C0  01E2               	clrf	___fladd@grs
  3145  02C1                     l1298:
  3146  02C1  0860               	movf	___fladd@aexp,w
  3147  02C2  00D7               	movwf	??___fladd
  3148  02C3  01D8               	clrf	??___fladd+1
  3149  02C4  0858               	movf	??___fladd+1,w
  3150  02C5  00DA               	movwf	??___fladd+3
  3151  02C6  0861               	movf	___fladd@bexp,w
  3152  02C7  0257               	subwf	??___fladd,w
  3153  02C8  00D9               	movwf	??___fladd+2
  3154  02C9  1C03               	skipc
  3155  02CA  03DA               	decf	??___fladd+3,f
  3156  02CB  085A               	movf	??___fladd+3,w
  3157  02CC  3A80               	xorlw	128
  3158  02CD  00FF               	movwf	btemp+1
  3159  02CE  3080               	movlw	128
  3160  02CF  027F               	subwf	btemp+1,w
  3161  02D0  1D03               	skipz
  3162  02D1  2AD4               	goto	u1485
  3163  02D2  301A               	movlw	26
  3164  02D3  0259               	subwf	??___fladd+2,w
  3165  02D4                     u1485:
  3166  02D4  1C03               	skipc
  3167  02D5  2AD7               	goto	u1481
  3168  02D6  2AD8               	goto	u1480
  3169  02D7                     u1481:
  3170  02D7  2B15               	goto	l1314
  3171  02D8                     u1480:
  3172  02D8                     l1300:
  3173  02D8  1283               	bcf	3,5	;RP0=0, select bank0
  3174  02D9  1303               	bcf	3,6	;RP1=0, select bank0
  3175  02DA  0852               	movf	___fladd@b+3,w
  3176  02DB  0451               	iorwf	___fladd@b+2,w
  3177  02DC  0450               	iorwf	___fladd@b+1,w
  3178  02DD  044F               	iorwf	___fladd@b,w
  3179  02DE  1D03               	skipz
  3180  02DF  2AE1               	goto	u1491
  3181  02E0  2AE3               	goto	u1490
  3182  02E1                     u1491:
  3183  02E1  3001               	movlw	1
  3184  02E2  2AE4               	goto	u1500
  3185  02E3                     u1490:
  3186  02E3  3000               	movlw	0
  3187  02E4                     u1500:
  3188  02E4  00D7               	movwf	??___fladd
  3189  02E5  0857               	movf	??___fladd,w
  3190  02E6  00E2               	movwf	___fladd@grs
  3191  02E7  3000               	movlw	0
  3192  02E8  00D2               	movwf	___fladd@b+3
  3193  02E9  3000               	movlw	0
  3194  02EA  00D1               	movwf	___fladd@b+2
  3195  02EB  3000               	movlw	0
  3196  02EC  00D0               	movwf	___fladd@b+1
  3197  02ED  3000               	movlw	0
  3198  02EE  00CF               	movwf	___fladd@b
  3199  02EF  0860               	movf	___fladd@aexp,w
  3200  02F0  00D7               	movwf	??___fladd
  3201  02F1  0857               	movf	??___fladd,w
  3202  02F2  00E1               	movwf	___fladd@bexp
  3203  02F3  2B1D               	goto	l413
  3204  02F4                     l415:
  3205  02F4  1C62               	btfss	___fladd@grs,0
  3206  02F5  2AF7               	goto	u1511
  3207  02F6  2AF8               	goto	u1510
  3208  02F7                     u1511:
  3209  02F7  2B01               	goto	l1304
  3210  02F8                     u1510:
  3211  02F8                     l1302:
  3212  02F8  0862               	movf	___fladd@grs,w
  3213  02F9  00D7               	movwf	??___fladd
  3214  02FA  1003               	clrc
  3215  02FB  0C57               	rrf	??___fladd,w
  3216  02FC  3801               	iorlw	1
  3217  02FD  00D8               	movwf	??___fladd+1
  3218  02FE  0858               	movf	??___fladd+1,w
  3219  02FF  00E2               	movwf	___fladd@grs
  3220  0300  2B03               	goto	l1306
  3221  0301                     l1304:
  3222  0301  1003               	clrc
  3223  0302  0CE2               	rrf	___fladd@grs,f
  3224  0303                     l1306:
  3225  0303  1C4F               	btfss	___fladd@b,0
  3226  0304  2B06               	goto	u1521
  3227  0305  2B07               	goto	u1520
  3228  0306                     u1521:
  3229  0306  2B08               	goto	l1310
  3230  0307                     u1520:
  3231  0307                     l1308:
  3232  0307  17E2               	bsf	___fladd@grs,7
  3233  0308                     l1310:
  3234  0308  3001               	movlw	1
  3235  0309  00D7               	movwf	??___fladd
  3236  030A                     u1535:
  3237  030A  0D52               	rlf	___fladd@b+3,w
  3238  030B  0CD2               	rrf	___fladd@b+3,f
  3239  030C  0CD1               	rrf	___fladd@b+2,f
  3240  030D  0CD0               	rrf	___fladd@b+1,f
  3241  030E  0CCF               	rrf	___fladd@b,f
  3242  030F  0BD7               	decfsz	??___fladd& (0+127),f
  3243  0310  2B0A               	goto	u1535
  3244  0311                     l1312:
  3245  0311  3001               	movlw	1
  3246  0312  00D7               	movwf	??___fladd
  3247  0313  0857               	movf	??___fladd,w
  3248  0314  07E1               	addwf	___fladd@bexp,f
  3249  0315                     l1314:
  3250  0315  1283               	bcf	3,5	;RP0=0, select bank0
  3251  0316  1303               	bcf	3,6	;RP1=0, select bank0
  3252  0317  0860               	movf	___fladd@aexp,w
  3253  0318  0261               	subwf	___fladd@bexp,w
  3254  0319  1C03               	skipc
  3255  031A  2B1C               	goto	u1541
  3256  031B  2B1D               	goto	u1540
  3257  031C                     u1541:
  3258  031C  2AF4               	goto	l415
  3259  031D                     u1540:
  3260  031D                     l413:
  3261  031D  1B5F               	btfsc	___fladd@signs,6
  3262  031E  2B20               	goto	u1551
  3263  031F  2B21               	goto	u1550
  3264  0320                     u1551:
  3265  0320  2B6C               	goto	l1340
  3266  0321                     u1550:
  3267  0321                     l1316:
  3268  0321  0861               	movf	___fladd@bexp,w
  3269  0322  1D03               	btfss	3,2
  3270  0323  2B25               	goto	u1561
  3271  0324  2B26               	goto	u1560
  3272  0325                     u1561:
  3273  0325  2B2F               	goto	l1322
  3274  0326                     u1560:
  3275  0326                     l1318:
  3276  0326  3000               	movlw	0
  3277  0327  00D2               	movwf	?___fladd+3
  3278  0328  3000               	movlw	0
  3279  0329  00D1               	movwf	?___fladd+2
  3280  032A  3000               	movlw	0
  3281  032B  00D0               	movwf	?___fladd+1
  3282  032C  3000               	movlw	0
  3283  032D  00CF               	movwf	?___fladd
  3284  032E  2C9A               	goto	l422
  3285  032F                     l1322:
  3286  032F  0853               	movf	___fladd@a,w
  3287  0330  07CF               	addwf	___fladd@b,f
  3288  0331  0854               	movf	___fladd@a+1,w
  3289  0332  1103               	clrz
  3290  0333  1803               	skipnc
  3291  0334  3E01               	addlw	1
  3292  0335  1903               	skipnz
  3293  0336  2B38               	goto	u1571
  3294  0337  07D0               	addwf	___fladd@b+1,f
  3295  0338                     u1571:
  3296  0338  0855               	movf	___fladd@a+2,w
  3297  0339  1103               	clrz
  3298  033A  1803               	skipnc
  3299  033B  3E01               	addlw	1
  3300  033C  1903               	skipnz
  3301  033D  2B3F               	goto	u1572
  3302  033E  07D1               	addwf	___fladd@b+2,f
  3303  033F                     u1572:
  3304  033F  0856               	movf	___fladd@a+3,w
  3305  0340  1103               	clrz
  3306  0341  1803               	skipnc
  3307  0342  3E01               	addlw	1
  3308  0343  1903               	skipnz
  3309  0344  2B46               	goto	u1573
  3310  0345  07D2               	addwf	___fladd@b+3,f
  3311  0346                     u1573:
  3312  0346                     l1324:
  3313  0346  1C52               	btfss	___fladd@b+3,0
  3314  0347  2B49               	goto	u1581
  3315  0348  2B4A               	goto	u1580
  3316  0349                     u1581:
  3317  0349  2C20               	goto	l1374
  3318  034A                     u1580:
  3319  034A                     l1326:
  3320  034A  1C62               	btfss	___fladd@grs,0
  3321  034B  2B4D               	goto	u1591
  3322  034C  2B4E               	goto	u1590
  3323  034D                     u1591:
  3324  034D  2B57               	goto	l1330
  3325  034E                     u1590:
  3326  034E                     l1328:
  3327  034E  0862               	movf	___fladd@grs,w
  3328  034F  00D7               	movwf	??___fladd
  3329  0350  1003               	clrc
  3330  0351  0C57               	rrf	??___fladd,w
  3331  0352  3801               	iorlw	1
  3332  0353  00D8               	movwf	??___fladd+1
  3333  0354  0858               	movf	??___fladd+1,w
  3334  0355  00E2               	movwf	___fladd@grs
  3335  0356  2B59               	goto	l1332
  3336  0357                     l1330:
  3337  0357  1003               	clrc
  3338  0358  0CE2               	rrf	___fladd@grs,f
  3339  0359                     l1332:
  3340  0359  1C4F               	btfss	___fladd@b,0
  3341  035A  2B5C               	goto	u1601
  3342  035B  2B5D               	goto	u1600
  3343  035C                     u1601:
  3344  035C  2B5E               	goto	l1336
  3345  035D                     u1600:
  3346  035D                     l1334:
  3347  035D  17E2               	bsf	___fladd@grs,7
  3348  035E                     l1336:
  3349  035E  3001               	movlw	1
  3350  035F  00D7               	movwf	??___fladd
  3351  0360                     u1615:
  3352  0360  0D52               	rlf	___fladd@b+3,w
  3353  0361  0CD2               	rrf	___fladd@b+3,f
  3354  0362  0CD1               	rrf	___fladd@b+2,f
  3355  0363  0CD0               	rrf	___fladd@b+1,f
  3356  0364  0CCF               	rrf	___fladd@b,f
  3357  0365  0BD7               	decfsz	??___fladd& (0+127),f
  3358  0366  2B60               	goto	u1615
  3359  0367                     l1338:
  3360  0367  3001               	movlw	1
  3361  0368  00D7               	movwf	??___fladd
  3362  0369  0857               	movf	??___fladd,w
  3363  036A  07E1               	addwf	___fladd@bexp,f
  3364  036B  2C20               	goto	l1374
  3365  036C                     l1340:
  3366  036C  0852               	movf	___fladd@b+3,w
  3367  036D  3A80               	xorlw	128
  3368  036E  00FF               	movwf	btemp+1
  3369  036F  0856               	movf	___fladd@a+3,w
  3370  0370  3A80               	xorlw	128
  3371  0371  027F               	subwf	btemp+1,w
  3372  0372  1D03               	skipz
  3373  0373  2B7E               	goto	u1623
  3374  0374  0855               	movf	___fladd@a+2,w
  3375  0375  0251               	subwf	___fladd@b+2,w
  3376  0376  1D03               	skipz
  3377  0377  2B7E               	goto	u1623
  3378  0378  0854               	movf	___fladd@a+1,w
  3379  0379  0250               	subwf	___fladd@b+1,w
  3380  037A  1D03               	skipz
  3381  037B  2B7E               	goto	u1623
  3382  037C  0853               	movf	___fladd@a,w
  3383  037D  024F               	subwf	___fladd@b,w
  3384  037E                     u1623:
  3385  037E  1803               	skipnc
  3386  037F  2B81               	goto	u1621
  3387  0380  2B82               	goto	u1620
  3388  0381                     u1621:
  3389  0381  2BDA               	goto	l1350
  3390  0382                     u1620:
  3391  0382                     l1342:
  3392  0382  30FF               	movlw	255
  3393  0383  00D7               	movwf	??___fladd
  3394  0384  30FF               	movlw	255
  3395  0385  00D8               	movwf	??___fladd+1
  3396  0386  30FF               	movlw	255
  3397  0387  00D9               	movwf	??___fladd+2
  3398  0388  30FF               	movlw	255
  3399  0389  00DA               	movwf	??___fladd+3
  3400  038A  0853               	movf	___fladd@a,w
  3401  038B  00DB               	movwf	??___fladd+4
  3402  038C  0854               	movf	___fladd@a+1,w
  3403  038D  00DC               	movwf	??___fladd+5
  3404  038E  0855               	movf	___fladd@a+2,w
  3405  038F  00DD               	movwf	??___fladd+6
  3406  0390  0856               	movf	___fladd@a+3,w
  3407  0391  00DE               	movwf	??___fladd+7
  3408  0392  084F               	movf	___fladd@b,w
  3409  0393  02DB               	subwf	??___fladd+4,f
  3410  0394  0850               	movf	___fladd@b+1,w
  3411  0395  1C03               	skipc
  3412  0396  0F50               	incfsz	___fladd@b+1,w
  3413  0397  2B99               	goto	u1631
  3414  0398  2B9A               	goto	u1632
  3415  0399                     u1631:
  3416  0399  02DC               	subwf	??___fladd+5,f
  3417  039A                     u1632:
  3418  039A  0851               	movf	___fladd@b+2,w
  3419  039B  1C03               	skipc
  3420  039C  0F51               	incfsz	___fladd@b+2,w
  3421  039D  2B9F               	goto	u1633
  3422  039E  2BA0               	goto	u1634
  3423  039F                     u1633:
  3424  039F  02DD               	subwf	??___fladd+6,f
  3425  03A0                     u1634:
  3426  03A0  0852               	movf	___fladd@b+3,w
  3427  03A1  1C03               	skipc
  3428  03A2  0F52               	incfsz	___fladd@b+3,w
  3429  03A3  2BA5               	goto	u1635
  3430  03A4  2BA6               	goto	u1636
  3431  03A5                     u1635:
  3432  03A5  02DE               	subwf	??___fladd+7,f
  3433  03A6                     u1636:
  3434  03A6  085B               	movf	??___fladd+4,w
  3435  03A7  07D7               	addwf	??___fladd,f
  3436  03A8  085C               	movf	??___fladd+5,w
  3437  03A9  1803               	skipnc
  3438  03AA  0F5C               	incfsz	??___fladd+5,w
  3439  03AB  2BAD               	goto	u1640
  3440  03AC  2BAE               	goto	u1641
  3441  03AD                     u1640:
  3442  03AD  07D8               	addwf	??___fladd+1,f
  3443  03AE                     u1641:
  3444  03AE  085D               	movf	??___fladd+6,w
  3445  03AF  1803               	skipnc
  3446  03B0  0F5D               	incfsz	??___fladd+6,w
  3447  03B1  2BB3               	goto	u1642
  3448  03B2  2BB4               	goto	u1643
  3449  03B3                     u1642:
  3450  03B3  07D9               	addwf	??___fladd+2,f
  3451  03B4                     u1643:
  3452  03B4  085E               	movf	??___fladd+7,w
  3453  03B5  1803               	skipnc
  3454  03B6  0A5E               	incf	??___fladd+7,w
  3455  03B7  07DA               	addwf	??___fladd+3,f
  3456  03B8  085A               	movf	??___fladd+3,w
  3457  03B9  00D2               	movwf	___fladd@b+3
  3458  03BA  0859               	movf	??___fladd+2,w
  3459  03BB  00D1               	movwf	___fladd@b+2
  3460  03BC  0858               	movf	??___fladd+1,w
  3461  03BD  00D0               	movwf	___fladd@b+1
  3462  03BE  0857               	movf	??___fladd,w
  3463  03BF  00CF               	movwf	___fladd@b
  3464  03C0                     l1344:
  3465  03C0  3080               	movlw	128
  3466  03C1  00D7               	movwf	??___fladd
  3467  03C2  0857               	movf	??___fladd,w
  3468  03C3  06DF               	xorwf	___fladd@signs,f
  3469  03C4  09E2               	comf	___fladd@grs,f
  3470  03C5  0AE2               	incf	___fladd@grs,f
  3471  03C6                     l1346:
  3472  03C6  0862               	movf	___fladd@grs,w
  3473  03C7  1D03               	btfss	3,2
  3474  03C8  2BCA               	goto	u1651
  3475  03C9  2BCB               	goto	u1650
  3476  03CA                     u1651:
  3477  03CA  2BE8               	goto	l430
  3478  03CB                     u1650:
  3479  03CB                     l1348:
  3480  03CB  3001               	movlw	1
  3481  03CC  07CF               	addwf	___fladd@b,f
  3482  03CD  3000               	movlw	0
  3483  03CE  1803               	skipnc
  3484  03CF  3001               	movlw	1
  3485  03D0  07D0               	addwf	___fladd@b+1,f
  3486  03D1  3000               	movlw	0
  3487  03D2  1803               	skipnc
  3488  03D3  3001               	movlw	1
  3489  03D4  07D1               	addwf	___fladd@b+2,f
  3490  03D5  3000               	movlw	0
  3491  03D6  1803               	skipnc
  3492  03D7  3001               	movlw	1
  3493  03D8  07D2               	addwf	___fladd@b+3,f
  3494  03D9  2BE8               	goto	l430
  3495  03DA                     l1350:
  3496  03DA  0853               	movf	___fladd@a,w
  3497  03DB  02CF               	subwf	___fladd@b,f
  3498  03DC  0854               	movf	___fladd@a+1,w
  3499  03DD  1C03               	skipc
  3500  03DE  0F54               	incfsz	___fladd@a+1,w
  3501  03DF  02D0               	subwf	___fladd@b+1,f
  3502  03E0  0855               	movf	___fladd@a+2,w
  3503  03E1  1C03               	skipc
  3504  03E2  0F55               	incfsz	___fladd@a+2,w
  3505  03E3  02D1               	subwf	___fladd@b+2,f
  3506  03E4  0856               	movf	___fladd@a+3,w
  3507  03E5  1C03               	skipc
  3508  03E6  0F56               	incfsz	___fladd@a+3,w
  3509  03E7  02D2               	subwf	___fladd@b+3,f
  3510  03E8                     l430:
  3511  03E8  0852               	movf	___fladd@b+3,w
  3512  03E9  0451               	iorwf	___fladd@b+2,w
  3513  03EA  0450               	iorwf	___fladd@b+1,w
  3514  03EB  044F               	iorwf	___fladd@b,w
  3515  03EC  1D03               	skipz
  3516  03ED  2BEF               	goto	u1661
  3517  03EE  2BF0               	goto	u1660
  3518  03EF                     u1661:
  3519  03EF  2C1C               	goto	l1372
  3520  03F0                     u1660:
  3521  03F0                     l1352:
  3522  03F0  0862               	movf	___fladd@grs,w
  3523  03F1  1D03               	btfss	3,2
  3524  03F2  2BF4               	goto	u1671
  3525  03F3  2BF5               	goto	u1670
  3526  03F4                     u1671:
  3527  03F4  2C1C               	goto	l1372
  3528  03F5                     u1670:
  3529  03F5                     l1354:
  3530  03F5  3000               	movlw	0
  3531  03F6  00D2               	movwf	?___fladd+3
  3532  03F7  3000               	movlw	0
  3533  03F8  00D1               	movwf	?___fladd+2
  3534  03F9  3000               	movlw	0
  3535  03FA  00D0               	movwf	?___fladd+1
  3536  03FB  3000               	movlw	0
  3537  03FC  00CF               	movwf	?___fladd
  3538  03FD  2C9A               	goto	l422
  3539  03FE                     l1358:
  3540  03FE  3001               	movlw	1
  3541  03FF  00D7               	movwf	??___fladd
  3542  0400                     u1685:
  3543  0400  1003               	clrc
  3544  0401  0DCF               	rlf	___fladd@b,f
  3545  0402  0DD0               	rlf	___fladd@b+1,f
  3546  0403  0DD1               	rlf	___fladd@b+2,f
  3547  0404  0DD2               	rlf	___fladd@b+3,f
  3548  0405  0BD7               	decfsz	??___fladd,f
  3549  0406  2C00               	goto	u1685
  3550  0407                     l1360:
  3551  0407  1FE2               	btfss	___fladd@grs,7
  3552  0408  2C0A               	goto	u1691
  3553  0409  2C0B               	goto	u1690
  3554  040A                     u1691:
  3555  040A  2C0C               	goto	l434
  3556  040B                     u1690:
  3557  040B                     l1362:
  3558  040B  144F               	bsf	___fladd@b,0
  3559  040C                     l434:
  3560  040C  1C62               	btfss	___fladd@grs,0
  3561  040D  2C0F               	goto	u1701
  3562  040E  2C10               	goto	u1700
  3563  040F                     u1701:
  3564  040F  2C13               	goto	l1366
  3565  0410                     u1700:
  3566  0410                     l1364:
  3567  0410  1403               	setc
  3568  0411  0DE2               	rlf	___fladd@grs,f
  3569  0412  2C15               	goto	l1368
  3570  0413                     l1366:
  3571  0413  1003               	clrc
  3572  0414  0DE2               	rlf	___fladd@grs,f
  3573  0415                     l1368:
  3574  0415  0861               	movf	___fladd@bexp,w
  3575  0416  1903               	btfsc	3,2
  3576  0417  2C19               	goto	u1711
  3577  0418  2C1A               	goto	u1710
  3578  0419                     u1711:
  3579  0419  2C1C               	goto	l1372
  3580  041A                     u1710:
  3581  041A                     l1370:
  3582  041A  3001               	movlw	1
  3583  041B  02E1               	subwf	___fladd@bexp,f
  3584  041C                     l1372:
  3585  041C  1FD1               	btfss	___fladd@b+2,7
  3586  041D  2C1F               	goto	u1721
  3587  041E  2C20               	goto	u1720
  3588  041F                     u1721:
  3589  041F  2BFE               	goto	l1358
  3590  0420                     u1720:
  3591  0420                     l1374:
  3592  0420  01E0               	clrf	___fladd@aexp
  3593  0421                     l1376:
  3594  0421  1FE2               	btfss	___fladd@grs,7
  3595  0422  2C24               	goto	u1731
  3596  0423  2C25               	goto	u1730
  3597  0424                     u1731:
  3598  0424  2C33               	goto	l1384
  3599  0425                     u1730:
  3600  0425                     l1378:
  3601  0425  0862               	movf	___fladd@grs,w
  3602  0426  397F               	andlw	127
  3603  0427  1903               	btfsc	3,2
  3604  0428  2C2A               	goto	u1741
  3605  0429  2C2B               	goto	u1740
  3606  042A                     u1741:
  3607  042A  2C2E               	goto	l440
  3608  042B                     u1740:
  3609  042B                     l1380:
  3610  042B  01E0               	clrf	___fladd@aexp
  3611  042C  0AE0               	incf	___fladd@aexp,f
  3612  042D  2C33               	goto	l1384
  3613  042E                     l440:
  3614  042E  1C4F               	btfss	___fladd@b,0
  3615  042F  2C31               	goto	u1751
  3616  0430  2C32               	goto	u1750
  3617  0431                     u1751:
  3618  0431  2C33               	goto	l1384
  3619  0432                     u1750:
  3620  0432  2C2B               	goto	l1380
  3621  0433                     l1384:
  3622  0433  0860               	movf	___fladd@aexp,w
  3623  0434  1903               	btfsc	3,2
  3624  0435  2C37               	goto	u1761
  3625  0436  2C38               	goto	u1760
  3626  0437                     u1761:
  3627  0437  2C6C               	goto	l443
  3628  0438                     u1760:
  3629  0438                     l1386:
  3630  0438  3001               	movlw	1
  3631  0439  07CF               	addwf	___fladd@b,f
  3632  043A  3000               	movlw	0
  3633  043B  1803               	skipnc
  3634  043C  3001               	movlw	1
  3635  043D  07D0               	addwf	___fladd@b+1,f
  3636  043E  3000               	movlw	0
  3637  043F  1803               	skipnc
  3638  0440  3001               	movlw	1
  3639  0441  07D1               	addwf	___fladd@b+2,f
  3640  0442  3000               	movlw	0
  3641  0443  1803               	skipnc
  3642  0444  3001               	movlw	1
  3643  0445  07D2               	addwf	___fladd@b+3,f
  3644  0446                     l1388:
  3645  0446  1C52               	btfss	___fladd@b+3,0
  3646  0447  2C49               	goto	u1771
  3647  0448  2C4A               	goto	u1770
  3648  0449                     u1771:
  3649  0449  2C6C               	goto	l443
  3650  044A                     u1770:
  3651  044A                     l1390:
  3652  044A  084F               	movf	___fladd@b,w
  3653  044B  00D7               	movwf	??___fladd
  3654  044C  0850               	movf	___fladd@b+1,w
  3655  044D  00D8               	movwf	??___fladd+1
  3656  044E  0851               	movf	___fladd@b+2,w
  3657  044F  00D9               	movwf	??___fladd+2
  3658  0450  0852               	movf	___fladd@b+3,w
  3659  0451  00DA               	movwf	??___fladd+3
  3660  0452  3001               	movlw	1
  3661  0453  00DB               	movwf	??___fladd+4
  3662  0454                     u1785:
  3663  0454  0D5A               	rlf	??___fladd+3,w
  3664  0455  0CDA               	rrf	??___fladd+3,f
  3665  0456  0CD9               	rrf	??___fladd+2,f
  3666  0457  0CD8               	rrf	??___fladd+1,f
  3667  0458  0CD7               	rrf	??___fladd,f
  3668  0459                     u1780:
  3669  0459  0BDB               	decfsz	??___fladd+4,f
  3670  045A  2C54               	goto	u1785
  3671  045B  085A               	movf	??___fladd+3,w
  3672  045C  00D2               	movwf	___fladd@b+3
  3673  045D  0859               	movf	??___fladd+2,w
  3674  045E  00D1               	movwf	___fladd@b+2
  3675  045F  0858               	movf	??___fladd+1,w
  3676  0460  00D0               	movwf	___fladd@b+1
  3677  0461  0857               	movf	??___fladd,w
  3678  0462  00CF               	movwf	___fladd@b
  3679  0463  0A61               	incf	___fladd@bexp,w
  3680  0464  1903               	btfsc	3,2
  3681  0465  2C67               	goto	u1791
  3682  0466  2C68               	goto	u1790
  3683  0467                     u1791:
  3684  0467  2C6C               	goto	l443
  3685  0468                     u1790:
  3686  0468                     l1392:
  3687  0468  3001               	movlw	1
  3688  0469  00D7               	movwf	??___fladd
  3689  046A  0857               	movf	??___fladd,w
  3690  046B  07E1               	addwf	___fladd@bexp,f
  3691  046C                     l443:
  3692  046C  0A61               	incf	___fladd@bexp,w
  3693  046D  1903               	btfsc	3,2
  3694  046E  2C70               	goto	u1801
  3695  046F  2C71               	goto	u1800
  3696  0470                     u1801:
  3697  0470  2C76               	goto	l1396
  3698  0471                     u1800:
  3699  0471                     l1394:
  3700  0471  0861               	movf	___fladd@bexp,w
  3701  0472  1D03               	btfss	3,2
  3702  0473  2C75               	goto	u1811
  3703  0474  2C76               	goto	u1810
  3704  0475                     u1811:
  3705  0475  2C84               	goto	l1402
  3706  0476                     u1810:
  3707  0476                     l1396:
  3708  0476  3000               	movlw	0
  3709  0477  00D2               	movwf	___fladd@b+3
  3710  0478  3000               	movlw	0
  3711  0479  00D1               	movwf	___fladd@b+2
  3712  047A  3000               	movlw	0
  3713  047B  00D0               	movwf	___fladd@b+1
  3714  047C  3000               	movlw	0
  3715  047D  00CF               	movwf	___fladd@b
  3716  047E                     l1398:
  3717  047E  0861               	movf	___fladd@bexp,w
  3718  047F  1D03               	btfss	3,2
  3719  0480  2C82               	goto	u1821
  3720  0481  2C83               	goto	u1820
  3721  0482                     u1821:
  3722  0482  2C84               	goto	l1402
  3723  0483                     u1820:
  3724  0483                     l1400:
  3725  0483  01DF               	clrf	___fladd@signs
  3726  0484                     l1402:
  3727  0484  1C61               	btfss	___fladd@bexp,0
  3728  0485  2C87               	goto	u1831
  3729  0486  2C88               	goto	u1830
  3730  0487                     u1831:
  3731  0487  2C8A               	goto	l1406
  3732  0488                     u1830:
  3733  0488                     l1404:
  3734  0488  17D1               	bsf	___fladd@b+2,7
  3735  0489  2C8E               	goto	l451
  3736  048A                     l1406:
  3737  048A  307F               	movlw	127
  3738  048B  00D7               	movwf	??___fladd
  3739  048C  0857               	movf	??___fladd,w
  3740  048D  05D1               	andwf	___fladd@b+2,f
  3741  048E                     l451:
  3742  048E  0861               	movf	___fladd@bexp,w
  3743  048F  00D7               	movwf	??___fladd
  3744  0490  1003               	clrc
  3745  0491  0C57               	rrf	??___fladd,w
  3746  0492  00D8               	movwf	??___fladd+1
  3747  0493  0858               	movf	??___fladd+1,w
  3748  0494  00D2               	movwf	___fladd@b+3
  3749  0495                     l1408:
  3750  0495  1FDF               	btfss	___fladd@signs,7
  3751  0496  2C98               	goto	u1841
  3752  0497  2C99               	goto	u1840
  3753  0498                     u1841:
  3754  0498  2C9A               	goto	l452
  3755  0499                     u1840:
  3756  0499                     l1410:
  3757  0499  17D2               	bsf	___fladd@b+3,7
  3758  049A                     l452:
  3759  049A                     l422:
  3760  049A  0008               	return
  3761  049B                     __end_of___fladd:
  3762  007E                     btemp	set	126	;btemp
  3763  007E                     wtemp0	set	126
  3764                           
  3765                           	psect	config
  3766                           
  3767                           ;Config register CONFIG @ 0x2007
  3768                           ;	Oscillator Selection bits
  3769                           ;	FOSC = HS, HS oscillator
  3770                           ;	Watchdog Timer Enable bit
  3771                           ;	WDTE = OFF, WDT disabled
  3772                           ;	Power-up Timer Enable bit
  3773                           ;	PWRTE = OFF, PWRT disabled
  3774                           ;	Brown-out Reset Enable bit
  3775                           ;	BOREN = OFF, BOR disabled
  3776                           ;	Low-Voltage (Single-Supply) In-Circuit Serial Programming Enable bit
  3777                           ;	LVP = OFF, RB3 is digital I/O, HV on MCLR must be used for programming
  3778                           ;	Data EEPROM Memory Code Protection bit
  3779                           ;	CPD = OFF, Data EEPROM code protection off
  3780                           ;	Flash Program Memory Write Enable bits
  3781                           ;	WRT = OFF, Write protection off; all program memory may be written to by EECON control
  3782                           ;	In-Circuit Debugger Mode bit
  3783                           ;	DEBUG = 0x1, unprogrammed default
  3784                           ;	Flash Program Memory Code Protection bit
  3785                           ;	CP = OFF, Code protection off
  3786  2007                     	org	8199
  3787  2007  3F3A               	dw	16186

Data Sizes:
    Strings     0
    Constant    0
    Data        0
    BSS         0
    Persistent  0
    Stack       0

Auto Spaces:
    Space          Size  Autos    Used
    COMMON           14     14      14
    BANK0            80     78      78
    BANK1            80     10      10
    BANK3            96      0       0
    BANK2            96      0       0

Pointer List with Targets:

    None.

Critical Paths under _main in COMMON

    _startPWM2->___flmul
    _startPWM1->___flmul
    ___fltol->___flmul
    ___flmul->__Umul8_16
    ___fldiv->___flmul
    ___fladd->___flmul

Critical Paths under _main in BANK0

    _startPWM2->___fltol
    _startPWM1->___fltol
    ___fltol->___fladd
    ___fldiv->___flmul
    ___fladd->___fldiv

Critical Paths under _main in BANK1

    _main->_startPWM1
    _main->_startPWM2

Critical Paths under _main in BANK3

    None.

Critical Paths under _main in BANK2

    None.

Call Graph Tables:

 ---------------------------------------------------------------------------------
 (Depth) Function   	        Calls       Base Space   Used Autos Params    Refs
 ---------------------------------------------------------------------------------
 (0) _main                                                 0     0      0   14624
                          _startPWM1
                          _startPWM2
 ---------------------------------------------------------------------------------
 (1) _startPWM2                                           10     4      6    7312
                                              0 BANK1     10     4      6
                            ___fladd
                            ___fldiv
                            ___flmul
                            ___fltol
 ---------------------------------------------------------------------------------
 (1) _startPWM1                                           10     4      6    7312
                                              0 BANK1     10     4      6
                            ___fladd
                            ___fldiv
                            ___flmul
                            ___fltol
 ---------------------------------------------------------------------------------
 (2) ___fltol                                             11     7      4     381
                                             67 BANK0     11     7      4
                            ___fladd (ARG)
                            ___fldiv (ARG)
                            ___flmul (ARG)
 ---------------------------------------------------------------------------------
 (2) ___flmul                                             26    18      8    2569
                                              9 COMMON     5     5      0
                                              0 BANK0     21    13      8
                          __Umul8_16
 ---------------------------------------------------------------------------------
 (3) __Umul8_16                                            9     7      2     799
                                              0 COMMON     9     7      2
 ---------------------------------------------------------------------------------
 (2) ___fldiv                                             26    18      8    1729
                                             21 BANK0     26    18      8
                            ___flmul (ARG)
 ---------------------------------------------------------------------------------
 (2) ___fladd                                             20    12      8    2414
                                             47 BANK0     20    12      8
                            ___fldiv (ARG)
                            ___flmul (ARG)
 ---------------------------------------------------------------------------------
 Estimated maximum stack depth 3
 ---------------------------------------------------------------------------------

 Call Graph Graphs:

 _main (ROOT)
   _startPWM1
     ___fladd
       ___fldiv (ARG)
         ___flmul (ARG)
           __Umul8_16
       ___flmul (ARG)
         __Umul8_16
     ___fldiv
       ___flmul (ARG)
         __Umul8_16
     ___flmul
       __Umul8_16
     ___fltol
       ___fladd (ARG)
         ___fldiv (ARG)
           ___flmul (ARG)
             __Umul8_16
         ___flmul (ARG)
           __Umul8_16
       ___fldiv (ARG)
         ___flmul (ARG)
           __Umul8_16
       ___flmul (ARG)
         __Umul8_16
   _startPWM2
     ___fladd
       ___fldiv (ARG)
         ___flmul (ARG)
           __Umul8_16
       ___flmul (ARG)
         __Umul8_16
     ___fldiv
       ___flmul (ARG)
         __Umul8_16
     ___flmul
       __Umul8_16
     ___fltol
       ___fladd (ARG)
         ___fldiv (ARG)
           ___flmul (ARG)
             __Umul8_16
         ___flmul (ARG)
           __Umul8_16
       ___fldiv (ARG)
         ___flmul (ARG)
           __Umul8_16
       ___flmul (ARG)
         __Umul8_16

 Address spaces:
Name               Size   Autos  Total    Cost      Usage
BITCOMMON            E      0       0       0        0.0%
EEDATA             100      0       0       0        0.0%
NULL                 0      0       0       0        0.0%
CODE                 0      0       0       0        0.0%
COMMON               E      E       E       1      100.0%
BITSFR0              0      0       0       1        0.0%
SFR0                 0      0       0       1        0.0%
BITSFR1              0      0       0       2        0.0%
SFR1                 0      0       0       2        0.0%
STACK                0      0       0       2        0.0%
ABS                  0      0       0       3        0.0%
BITBANK0            50      0       0       4        0.0%
BITSFR3              0      0       0       4        0.0%
SFR3                 0      0       0       4        0.0%
BANK0               50     4E      4E       5       97.5%
BITSFR2              0      0       0       5        0.0%
SFR2                 0      0       0       5        0.0%
BITBANK1            50      0       0       6        0.0%
BANK1               50      A       A       7       12.5%
BITBANK3            60      0       0       8        0.0%
BANK3               60      0       0       9        0.0%
BITBANK2            60      0       0      10        0.0%
BANK2               60      0       0      11        0.0%
DATA                 0      0       0      12        0.0%


Microchip Technology PIC Macro Assembler V2.30 build 20200825195618 
Symbol Table                                                                                   Wed Jun 22 11:05:33 2022

           ___fldiv@aexp 004E             ___fldiv@bexp 004D             ___fldiv@sign 0046  
                     l22 0FFF                       l19 0F52      __Umul8_16@word_mpld 0076  
                    l302 0EA5                      l312 0EA5                      l413 031D  
                    l309 0E90                      l430 03E8                      l422 049A  
                    l415 02F4                      l511 0767                      l440 042E  
                    l409 0276                      l505 07FB                      l434 040C  
                    l451 048E                      l443 046C                      l452 049A  
                    l524 0E17                      l517 07EF                      l526 0E29  
                    l481 0184                      l465 0092                      l467 0212  
                    l487 01F6                      l489 0206                      _PR2 0092  
           ___flmul@aexp 002D             ___flmul@bexp 002E             ___flmul@sign 0028  
           ___flmul@temp 0033             ___flmul@prod 002F             ___fltol@exp1 006D  
                   l1300 02D8                     l1220 021A                     l1212 0E85  
                   l1204 0E6C                     l1310 0308                     l1302 02F8  
                   l1230 022F                     l1222 0220                     l1214 0E95  
                   l1206 0E7E                     l1400 0483                     l1312 0311  
                   l1304 0301                     l1240 0247                     l1232 0237  
                   l1224 0224                     l1216 0E9A                     l1410 0499  
                   l1402 0484                     l1330 0357                     l1322 032F  
                   l1306 0303                     l1314 0315                     l1250 0259  
                   l1242 024D                     l1234 0238                     l1226 0225  
                   l1218 0213                     l1170 0E06                     l1404 0488  
                   l1332 0359                     l1324 0346                     l1316 0321  
                   l1340 036C                     l1308 0307                     l1252 025E  
                   l1260 026E                     l1244 024E                     l1228 022A  
                   l1236 023A                     l1500 0147                     l1420 0048  
                   l1412 0036                     l1172 0E0D                     l1406 048A  
                   l1342 0382                     l1350 03DA                     l1334 035D  
                   l1326 034A                     l1318 0326                     l1270 028C  
                   l1262 027C                     l1254 0263                     l1246 0254  
                   l1238 0242                     l1502 0150                     l1510 0164  
                   l1422 004D                     l1430 005D                     l1414 003D  
                   l1174 0E11                     l1190 0E55                     l1182 0E2A  
                   l1408 0495                     l1360 0407                     l1352 03F0  
                   l1344 03C0                     l1336 035E                     l1328 034E  
                   l1280 02A0                     l1272 0290                     l1264 0280  
                   l1256 026B                     l1248 0258                     l1512 0168  
                   l1504 0154                     l1440 0075                     l1432 0065  
                   l1424 0052                     l1416 0043                     l1176 0E20  
                   l1168 0E04                     l1600 0518                     l1192 0E56  
                   l1184 0E37                     l1370 041A                     l1362 040B  
                   l1354 03F5                     l1346 03C6                     l1338 0367  
                   l1290 02B4                     l1282 02A4                     l1274 0294  
                   l1266 0284                     l1258 026C                     l1530 01B9  
                   l1522 0189                     l1514 0169                     l1506 0155  
                   l1442 007A                     l1450 008A                     l1434 006A  
                   l1426 005A                     l1418 0047                     l1178 0E25  
                   l1610 05A6                     l1602 0525                     l1194 0E5E  
                   l1380 042B                     l1364 0410                     l1372 041C  
                   l1348 03CB                     l1292 02B8                     l1284 02A8  
                   l1276 0298                     l1268 0288                     l1540 01ED  
                   l1524 018E                     l1532 01BF                     l1516 016D  
                   l1508 015E                     l1452 009A                     l1460 00B3  
                   l1444 007F                     l1436 0070                     l1428 005B  
                   l1620 0608                     l1612 05C2                     l1604 0542  
                   l1196 0E60                     l1188 0E40                     l1700 0F51  
                   l1390 044A                     l1366 0413                     l1358 03FE  
                   l1374 0420                     l1294 02BC                     l1286 02AC  
                   l1278 029C                     l1542 01F5                     l1534 01CC  
                   l1526 019C                     l1518 0181                     l1470 00DB  
                   l1462 00B8                     l1454 00A6                     l1446 0087  
                   l1438 0074                     l1630 0698                     l1622 0625  
                   l1614 05CB                     l1606 055E                     l1198 0E64  
                   l1702 0F53                     l1710 0008                     l1392 0468  
                   l1384 0433                     l1376 0421                     l1368 0415  
                   l1288 02B0                     l1296 02C0                     l1544 01FC  
                   l1536 01DA                     l1528 01A0                     l1480 0104  
                   l1472 00E3                     l1456 00AA                     l1448 0088  
                   l1640 072A                     l1632 06C5                     l1624 063E  
                   l1616 05DB                     l1608 058A                     l1560 04AC  
                   l1704 0F57                     l1712 000C                     l1394 0471  
                   l1386 0438                     l1378 0425                     l1298 02C1  
                   l1546 0200                     l1538 01E9                     l1490 0125  
                   l1482 0108                     l1474 00EB                     l1466 00C1  
                   l1642 0733                     l1650 0747                     l1634 06EB  
                   l1626 065B                     l1618 05F8                     l1570 04C1  
                   l1562 04AD                     l1554 049B                     l1706 0F94  
                   l1396 0476                     l1388 0446                     l1548 0202  
                   l1492 0133                     l1484 0109                     l1476 00ED  
                   l1468 00D3                     l1652 074B                     l1644 0737  
                   l1636 0713                     l1628 0688                     l1580 04D9  
                   l1572 04C9                     l1564 04B2                     l1556 04A2  
                   l1708 0FFE                     l1398 047E                     l1478 00F2  
                   l1486 0112                     l1494 0137                     l1670 079C  
                   l1662 076C                     l1654 074C                     l1646 0738  
                   l1638 071C                     l1590 04F5                     l1582 04DE  
                   l1574 04CE                     l1566 04B7                     l1558 04A8  
                   l1496 013D                     l1488 0124                     l1680 07D3  
                   l1664 0771                     l1672 07A2                     l1656 0750  
                   l1648 0741                     l1592 04FA                     l1584 04E3  
                   l1576 04D4                     l1568 04BF                     l1498 0145  
                   l1690 07F3                     l1682 07D5                     l1674 07AF  
                   l1666 077F                     l1658 0764                     l1594 04FF  
                   l1586 04EB                     l1578 04D8                     l1684 07E3  
                   l1676 07BA                     l1668 0783                     l1588 04ED  
                   l1686 07E7                     l1678 07C9                     l1598 0508  
                   l1694 0EA6                     l1688 07E8                     l1696 0EAA  
                   l1698 0EE7                     u2000 0145                     u2001 0144  
                   u2100 01AF                     u2020 0154                     u1300 0E4E  
                   u2021 0153                     u2110 01CC                     u1310 0E64  
                   u2111 01CB                     u2015 0149                     u1311 0E63  
                   u1400 022A                     u2120 01E9                     u2040 0168  
                   u2200 04FA                     u1320 0E6B                     u1401 0229  
                   u2121 01E8                     u2105 01AA                     u2041 0167  
                   u2201 04F9                     u1321 0E6A                     u1305 0E49  
                   u1410 022F                     u2130 0200                     u2050 016D  
                   u2210 04FF                     u1411 022E                     u2131 01FF  
                   u2115 01C8                     u2051 016C                     u2035 0157  
                   u2211 04FE                     u1500 02E4                     u1420 024D  
                   u2060 0181                     u1260 0E11                     u2140 04AC  
                   u1340 0E7D                     u1421 024C                     u2125 01E5  
                   u2061 0180                     u1261 0E10                     u2301 064D  
                   u2221 0550                     u2141 04AB                     u1341 0E7C  
                   u1510 02F8                     u1430 0258                     u2070 0188  
                   u2302 0654                     u2222 0557                     u2150 04B2  
                   u1350 0E84                     u1511 02F7                     u1431 0257  
                   u2071 0187                     u2311 067A                     u2303 065B  
                   u2231 056C                     u2223 055E                     u2151 04B1  
                   u1351 0E83                     u1335 0E6D                     u1600 035D  
                   u1520 0307                     u1440 025E                     u2080 018E  
                   u1280 0E25                     u2312 0681                     u2232 0573  
                   u2160 04B7                     u1601 035C                     u1521 0306  
                   u1441 025D                     u2081 018D                     u1281 0E24  
                   u2321 06A7                     u2313 0688                     u2241 0598  
                   u2233 057A                     u2161 04B6                     u1450 0263  
                   u2090 01A0                     u2410 074B                     u2330 06D1  
                   u2322 06AE                     u2242 059F                     u2170 04D8  
                   u1370 0E95                     u1290 0E37                     u1451 0262  
                   u2091 019F                     u1275 0E18                     u2411 074A  
                   u2323 06B5                     u2251 05B4                     u2243 05A6  
                   u2171 04D7                     u1371 0E94                     u1291 0E36  
                   u1700 0410                     u1620 0382                     u1540 031D  
                   u1460 027C                     u2500 07E7                     u2420 0750  
                   u2252 05BB                     u2180 04DE                     u1380 0E9A  
                   u1701 040F                     u1621 0381                     u1541 031C  
                   u1461 027B                     u2501 07E6                     u2421 074F  
                   u2405 073A                     u2341 06DD                     u2253 05C2  
                   u2181 04DD                     u1381 0E99                     u1365 0E87  
                   u1710 041A                     u1550 0321                     u1470 0280  
                   u1390 0224                     u2430 0764                     u2350 06F9  
                   u2342 06E4                     u2190 04E3                     u1711 0419  
                   u1631 0399                     u1623 037E                     u1615 0360  
                   u1551 0320                     u1535 030A                     u1471 027F  
                   u1391 0223                     u2431 0763                     u2343 06EB  
                   u2335 06CC                     u2271 05EA                     u2191 04E2  
                   u1800 0471                     u1720 0420                     u1640 03AD  
                   u1632 039A                     u1560 0326                     u1480 02D8  
                   u2440 076B                     u2272 05F1                     u1801 0470  
                   u1721 041F                     u1641 03AE                     u1633 039F  
                   u1561 0325                     u1481 02D7                     u2441 076A  
                   u2361 0705                     u2281 0617                     u2273 05F8  
                   u2265 05C4                     u1810 0476                     u1730 0425  
                   u1650 03CB                     u1642 03B3                     u1634 03A0  
                   u1490 02E3                     u2450 0771                     u2362 070C  
                   u2282 061E                     u1811 0475                     u1731 0424  
                   u1651 03CA                     u1643 03B4                     u1635 03A5  
                   u1571 0338                     u1491 02E1                     u2451 0770  
                   u2363 0713                     u2355 06F4                     u2283 0625  
                   u1820 0483                     u1740 042B                     u1660 03F0  
                   u1636 03A6                     u1580 034A                     u1572 033F  
                   u1900 007F                     u2460 0783                     u1821 0482  
                   u1741 042A                     u1661 03EF                     u1581 0349  
                   u1573 0346                     u1485 02D4                     u1901 007E  
                   u2461 0782                     u1830 0488                     u1750 0432  
                   u1670 03F5                     u1590 034E                     u1910 009A  
                   u2470 0792                     u2390 0737                     u1831 0487  
                   u1751 0431                     u1671 03F4                     u1591 034D  
                   u1911 0099                     u2391 0736                     u2375 0715  
                   u2295 0627                     u1840 0499                     u1760 0438  
                   u1920 00B8                     u2480 07AF                     u1841 0498  
                   u1761 0437                     u1921 00B7                     u2481 07AE  
                   u2385 072C                     u1770 044A                     u1690 040B  
                   u1930 00F2                     u1850 0047                     u2490 07C9  
                   u1771 0449                     u1691 040A                     u1931 00F1  
                   u1851 0046                     u2491 07C8                     u2475 078D  
                   u1780 0459                     u1860 004D                     u1685 0400  
                   u1861 004C                     u2485 07AB                     u1790 0468  
                   u1870 0052                     u1791 0467                     u1871 0051  
                   u2495 07C5                     u1960 0108                     u1880 0074  
                   u1785 0454                     u1961 0107                     u1945 00F4  
                   u1881 0073                     u1890 007A                     u1955 00FD  
                   u1891 0079                     u1980 0124                     u1981 0123  
                   u1990 013D                     u1991 013C                     u1975 010B  
                   u1985 0120                     _main 0008                     btemp 007E  
                   start 0000          ___fldiv@new_exp 0047            ___fltol@sign1 006C  
        __end_of___fladd 049B                    ?_main 0070          __end_of___fldiv 0213  
        __end_of___flmul 07FC          __end_of___fltol 0EA6                    status 0003  
                  wtemp0 007E          __initialization 07FC             __end_of_main 0036  
                 ??_main 007E                   _CCPR1L 0015                   _CCPR2L 001B  
                 _TMR2ON 0092                   _TRISC1 0439                   _TRISC2 043A  
              ??___fladd 0057                ??___fldiv 003D                ??___flmul 0079  
              ??___fltol 0067       __size_of__Umul8_16 0027  __end_of__initialization 07FC  
             ___fltol@f1 0063           __pcstackCOMMON 0070            startPWM1@freq 00A0  
          startPWM2@freq 00A0            startPWM1@duty 00A4            startPWM2@duty 00A4  
      __end_of__Umul8_16 0E2A               __pmaintext 0008                  _CCP1CON 0017  
                _CCP2CON 001D       __size_of_startPWM1 00AD       __size_of_startPWM2 00AD  
       startPWM1@periodt 00A6         startPWM2@periodt 00A6                  ___fladd 0213  
                ___fldiv 0036                  ___flmul 049B                  ___fltol 0E2A  
                __ptext1 0F53                  __ptext2 0EA6                  __ptext3 0E2A  
                __ptext4 049B                  __ptext5 0E03                  __ptext6 0036  
                __ptext7 0213     end_of_initialization 07FC        __end_of_startPWM1 0F53  
      __end_of_startPWM2 1000              ___fladd@grs 0062              ___fldiv@grs 0049  
            ___fldiv@rem 0042              ___flmul@grs 0029      start_initialization 07FC  
              __Umul8_16 0E03                ___fladd@a 0053                ___fladd@b 004F  
              ___fldiv@a 0035                ___fldiv@b 0039                ___flmul@a 0024  
              ___flmul@b 0020                ___latbits 0002            __pcstackBANK0 0020  
          __pcstackBANK1 00A0                 ?___fladd 004F                 ?___fldiv 0035  
               ?___flmul 0020                 ?___fltol 0063               ?__Umul8_16 0070  
              _startPWM1 0EA6                _startPWM2 0F53              ??__Umul8_16 0072  
       __size_of___fladd 0288         __size_of___fldiv 01DD         __size_of___flmul 0361  
       __size_of___fltol 007C               ?_startPWM1 00A0               ?_startPWM2 00A0  
          __size_of_main 002E              ??_startPWM1 007E              ??_startPWM2 007E  
 __Umul8_16@multiplicand 0070            ___fladd@signs 005F             ___fladd@aexp 0060  
           ___fladd@bexp 0061     __Umul8_16@multiplier 0078        __Umul8_16@product 0074  
