

Microchip MPLAB XC8 Assembler V2.30 build 20200825195618 
                                                                                               Thu Jun 23 11:33:30 2022

Microchip MPLAB XC8 C Compiler v2.30 (Free license) build 20200825195618 Og1 
     1                           	processor	16F877A
     2                           	pagewidth 120
     3                           	opt	flic
     4                           	psect	nvBANK1,global,class=BANK1,space=1,delta=1,noexec
     5                           	psect	cinit,global,class=CODE,merge=1,delta=2
     6                           	psect	cstackBANK1,global,class=BANK1,space=1,delta=1,noexec
     7                           	psect	cstackCOMMON,global,class=COMMON,space=1,delta=1,noexec
     8                           	psect	cstackBANK0,global,class=BANK0,space=1,delta=1,noexec
     9                           	psect	maintext,global,class=CODE,split=1,delta=2
    10                           	psect	text1,local,class=CODE,merge=1,delta=2
    11                           	psect	text2,local,class=CODE,merge=1,delta=2
    12                           	psect	text3,local,class=CODE,merge=1,delta=2,group=1
    13                           	psect	text4,local,class=CODE,merge=1,delta=2,group=1
    14                           	psect	text5,local,class=CODE,merge=1,delta=2,group=1
    15                           	psect	text6,local,class=CODE,merge=1,delta=2,group=1
    16                           	psect	text7,local,class=CODE,merge=1,delta=2,group=1
    17                           	psect	text8,local,class=CODE,merge=1,delta=2
    18                           	psect	text9,local,class=CODE,merge=1,delta=2,group=1
    19                           	psect	config,global,abs,ovrld,class=CONFIG,space=4,delta=2,noexec
    20                           	dabs	1,0x7E,2
    21  0000                     
    22                           ; Version 2.20
    23                           ; Generated 12/02/2020 GMT
    24                           ; 
    25                           ; Copyright © 2020, Microchip Technology Inc. and its subsidiaries ("Microchip")
    26                           ; All rights reserved.
    27                           ; 
    28                           ; This software is developed by Microchip Technology Inc. and its subsidiaries ("Microch
      +                          ip").
    29                           ; 
    30                           ; Redistribution and use in source and binary forms, with or without modification, are
    31                           ; permitted provided that the following conditions are met:
    32                           ; 
    33                           ;     1. Redistributions of source code must retain the above copyright notice, this lis
      +                          t of
    34                           ;        conditions and the following disclaimer.
    35                           ; 
    36                           ;     2. Redistributions in binary form must reproduce the above copyright notice, this 
      +                          list
    37                           ;        of conditions and the following disclaimer in the documentation and/or other
    38                           ;        materials provided with the distribution.
    39                           ; 
    40                           ;     3. Microchip's name may not be used to endorse or promote products derived from th
      +                          is
    41                           ;        software without specific prior written permission.
    42                           ; 
    43                           ; THIS SOFTWARE IS PROVIDED BY MICROCHIP "AS IS" AND ANY EXPRESS OR IMPLIED WARRANTIES,
    44                           ; INCLUDING, BUT NOT LIMITED TO, THE IMPLIED WARRANTIES OF MERCHANTABILITY AND FITNESS F
      +                          OR
    45                           ; PURPOSE ARE DISCLAIMED.  IN NO EVENT SHALL MICROCHIP BE LIABLE FOR ANY DIRECT, INDIREC
      +                          T,
    46                           ; INCIDENTAL, SPECIAL, EXEMPLARY, OR CONSEQUENTIAL DAMAGES (INCLUDING BUT NOT LIMITED TO
    47                           ; PROCUREMENT OF SUBSTITUTE GOODS OR SERVICES; LOSS OF USE, DATA OR PROFITS; OR BUSINESS
    48                           ; INTERRUPTION) HOWSOEVER CAUSED AND ON ANY THEORY OF LIABILITY, WHETHER IN CONTRACT, ST
      +                          RICT
    49                           ; LIABILITY, OR TORT (INCLUDING NEGLIGENCE OR OTHERWISE) ARISING IN ANY WAY OUT OF THE U
      +                          SE OF
    50                           ; THIS SOFTWARE, EVEN IF ADVISED OF THE POSSIBILITY OF SUCH DAMAGE.
    51                           ; 
    52                           ; 
    53                           ; Code-generator required, PIC16F877A Definitions
    54                           ; 
    55                           ; SFR Addresses
    56  0000                     	;# 
    57  0001                     	;# 
    58  0002                     	;# 
    59  0003                     	;# 
    60  0004                     	;# 
    61  0005                     	;# 
    62  0006                     	;# 
    63  0007                     	;# 
    64  0008                     	;# 
    65  0009                     	;# 
    66  000A                     	;# 
    67  000B                     	;# 
    68  000C                     	;# 
    69  000D                     	;# 
    70  000E                     	;# 
    71  000E                     	;# 
    72  000F                     	;# 
    73  0010                     	;# 
    74  0011                     	;# 
    75  0012                     	;# 
    76  0013                     	;# 
    77  0014                     	;# 
    78  0015                     	;# 
    79  0015                     	;# 
    80  0016                     	;# 
    81  0017                     	;# 
    82  0018                     	;# 
    83  0019                     	;# 
    84  001A                     	;# 
    85  001B                     	;# 
    86  001B                     	;# 
    87  001C                     	;# 
    88  001D                     	;# 
    89  001E                     	;# 
    90  001F                     	;# 
    91  0081                     	;# 
    92  0085                     	;# 
    93  0086                     	;# 
    94  0087                     	;# 
    95  0088                     	;# 
    96  0089                     	;# 
    97  008C                     	;# 
    98  008D                     	;# 
    99  008E                     	;# 
   100  0091                     	;# 
   101  0092                     	;# 
   102  0093                     	;# 
   103  0094                     	;# 
   104  0098                     	;# 
   105  0099                     	;# 
   106  009C                     	;# 
   107  009D                     	;# 
   108  009E                     	;# 
   109  009F                     	;# 
   110  010C                     	;# 
   111  010D                     	;# 
   112  010E                     	;# 
   113  010F                     	;# 
   114  018C                     	;# 
   115  018D                     	;# 
   116  0000                     	;# 
   117  0001                     	;# 
   118  0002                     	;# 
   119  0003                     	;# 
   120  0004                     	;# 
   121  0005                     	;# 
   122  0006                     	;# 
   123  0007                     	;# 
   124  0008                     	;# 
   125  0009                     	;# 
   126  000A                     	;# 
   127  000B                     	;# 
   128  000C                     	;# 
   129  000D                     	;# 
   130  000E                     	;# 
   131  000E                     	;# 
   132  000F                     	;# 
   133  0010                     	;# 
   134  0011                     	;# 
   135  0012                     	;# 
   136  0013                     	;# 
   137  0014                     	;# 
   138  0015                     	;# 
   139  0015                     	;# 
   140  0016                     	;# 
   141  0017                     	;# 
   142  0018                     	;# 
   143  0019                     	;# 
   144  001A                     	;# 
   145  001B                     	;# 
   146  001B                     	;# 
   147  001C                     	;# 
   148  001D                     	;# 
   149  001E                     	;# 
   150  001F                     	;# 
   151  0081                     	;# 
   152  0085                     	;# 
   153  0086                     	;# 
   154  0087                     	;# 
   155  0088                     	;# 
   156  0089                     	;# 
   157  008C                     	;# 
   158  008D                     	;# 
   159  008E                     	;# 
   160  0091                     	;# 
   161  0092                     	;# 
   162  0093                     	;# 
   163  0094                     	;# 
   164  0098                     	;# 
   165  0099                     	;# 
   166  009C                     	;# 
   167  009D                     	;# 
   168  009E                     	;# 
   169  009F                     	;# 
   170  010C                     	;# 
   171  010D                     	;# 
   172  010E                     	;# 
   173  010F                     	;# 
   174  018C                     	;# 
   175  018D                     	;# 
   176                           
   177                           	psect	nvBANK1
   178  00BB                     __pnvBANK1:
   179  00BB                     _feedback_voltage:
   180  00BB                     	ds	4
   181  00BF                     _battery_current:
   182  00BF                     	ds	4
   183  001E                     _ADRESH	set	30
   184  001B                     _CCPR2L	set	27
   185  001D                     _CCP2CON	set	29
   186  0015                     _CCPR1L	set	21
   187  0017                     _CCP1CON	set	23
   188  00FF                     _ADCS1	set	255
   189  00FE                     _ADCS0	set	254
   190  00FA                     _GO_nDONE	set	250
   191  00F8                     _ADON	set	248
   192  00FD                     _CHS2	set	253
   193  00FC                     _CHS1	set	252
   194  00FB                     _CHS0	set	251
   195  0092                     _TMR2ON	set	146
   196  009F                     _ADCON1	set	159
   197  009E                     _ADRESL	set	158
   198  0092                     _PR2	set	146
   199  043A                     _TRISC2	set	1082
   200  0439                     _TRISC1	set	1081
   201                           
   202                           	psect	cinit
   203  07FC                     start_initialization:	
   204                           ; #config settings
   205                           
   206  07FC                     __initialization:
   207  07FC                     end_of_initialization:	
   208                           ;End of C runtime variable initialization code
   209                           
   210  07FC                     __end_of__initialization:
   211  07FC  0183               	clrf	3
   212  07FD  120A  118A  285C   	ljmp	_main	;jump to C main() function
   213                           
   214                           	psect	cstackBANK1
   215  00A0                     __pcstackBANK1:
   216  00A0                     ___fladd@signs:
   217                           
   218                           ; 1 bytes @ 0x0
   219  00A0                     	ds	1
   220  00A1                     ___fladd@aexp:
   221                           
   222                           ; 1 bytes @ 0x1
   223  00A1                     	ds	1
   224  00A2                     ___fladd@bexp:
   225                           
   226                           ; 1 bytes @ 0x2
   227  00A2                     	ds	1
   228  00A3                     ___fladd@grs:
   229                           
   230                           ; 1 bytes @ 0x3
   231  00A3                     	ds	1
   232  00A4                     ?___fltol:
   233  00A4                     ___fltol@f1:	
   234                           ; 4 bytes @ 0x4
   235                           
   236                           
   237                           ; 4 bytes @ 0x4
   238  00A4                     	ds	4
   239  00A8                     ??___fltol:
   240                           
   241                           ; 1 bytes @ 0x8
   242  00A8                     	ds	5
   243  00AD                     ?_startPWM1:
   244  00AD                     ?_startPWM2:	
   245                           ; 1 bytes @ 0xD
   246                           
   247  00AD                     startPWM1@freq:	
   248                           ; 1 bytes @ 0xD
   249                           
   250  00AD                     startPWM2@freq:	
   251                           ; 4 bytes @ 0xD
   252                           
   253                           
   254                           ; 4 bytes @ 0xD
   255  00AD                     	ds	4
   256  00B1                     startPWM1@duty:
   257  00B1                     startPWM2@duty:	
   258                           ; 2 bytes @ 0x11
   259                           
   260                           
   261                           ; 2 bytes @ 0x11
   262  00B1                     	ds	2
   263  00B3                     startPWM1@periodt:
   264  00B3                     startPWM2@periodt:	
   265                           ; 4 bytes @ 0x13
   266                           
   267                           
   268                           ; 4 bytes @ 0x13
   269  00B3                     	ds	4
   270  00B7                     _main$673:
   271                           
   272                           ; 4 bytes @ 0x17
   273  00B7                     	ds	4
   274                           
   275                           	psect	cstackCOMMON
   276  0070                     __pcstackCOMMON:
   277  0070                     ?_main:
   278  0070                     ?__Umul8_16:	
   279                           ; 1 bytes @ 0x0
   280                           
   281  0070                     ?_readADC:	
   282                           ; 2 bytes @ 0x0
   283                           
   284  0070                     __Umul8_16@multiplicand:	
   285                           ; 2 bytes @ 0x0
   286                           
   287                           
   288                           ; 1 bytes @ 0x0
   289  0070                     	ds	2
   290  0072                     ??__Umul8_16:
   291  0072                     ??_readADC:	
   292                           ; 1 bytes @ 0x2
   293                           
   294                           
   295                           ; 1 bytes @ 0x2
   296  0072                     	ds	2
   297  0074                     __Umul8_16@product:
   298                           
   299                           ; 2 bytes @ 0x4
   300  0074                     	ds	2
   301  0076                     readADC@res:
   302  0076                     __Umul8_16@word_mpld:	
   303                           ; 2 bytes @ 0x6
   304                           
   305                           
   306                           ; 2 bytes @ 0x6
   307  0076                     	ds	2
   308  0078                     readADC@ADCpin:
   309  0078                     __Umul8_16@multiplier:	
   310                           ; 1 bytes @ 0x8
   311                           
   312                           
   313                           ; 1 bytes @ 0x8
   314  0078                     	ds	1
   315  0079                     ?___xxtofl:
   316  0079                     ___xxtofl@val:	
   317                           ; 4 bytes @ 0x9
   318                           
   319                           
   320                           ; 4 bytes @ 0x9
   321  0079                     	ds	4
   322  007D                     ??_startPWM1:
   323  007D                     ??_startPWM2:	
   324                           ; 1 bytes @ 0xD
   325                           
   326  007D                     ??_main:	
   327                           ; 1 bytes @ 0xD
   328                           
   329                           
   330                           	psect	cstackBANK0
   331  0020                     __pcstackBANK0:	
   332                           ; 1 bytes @ 0xD
   333                           
   334  0020                     ??___xxtofl:
   335                           
   336                           ; 1 bytes @ 0x0
   337  0020                     	ds	4
   338  0024                     ___xxtofl@sign:
   339                           
   340                           ; 1 bytes @ 0x4
   341  0024                     	ds	1
   342  0025                     ___xxtofl@exp:
   343                           
   344                           ; 1 bytes @ 0x5
   345  0025                     	ds	1
   346  0026                     ___xxtofl@arg:
   347                           
   348                           ; 4 bytes @ 0x6
   349  0026                     	ds	4
   350  002A                     ?___flmul:
   351  002A                     ___flmul@b:	
   352                           ; 4 bytes @ 0xA
   353                           
   354                           
   355                           ; 4 bytes @ 0xA
   356  002A                     	ds	4
   357  002E                     ___flmul@a:
   358                           
   359                           ; 4 bytes @ 0xE
   360  002E                     	ds	4
   361  0032                     ??___flmul:
   362                           
   363                           ; 1 bytes @ 0x12
   364  0032                     	ds	5
   365  0037                     ___flmul@sign:
   366                           
   367                           ; 1 bytes @ 0x17
   368  0037                     	ds	1
   369  0038                     ___flmul@grs:
   370                           
   371                           ; 4 bytes @ 0x18
   372  0038                     	ds	4
   373  003C                     ___flmul@aexp:
   374                           
   375                           ; 1 bytes @ 0x1C
   376  003C                     	ds	1
   377  003D                     ___flmul@bexp:
   378                           
   379                           ; 1 bytes @ 0x1D
   380  003D                     	ds	1
   381  003E                     ___flmul@prod:
   382                           
   383                           ; 4 bytes @ 0x1E
   384  003E                     	ds	4
   385  0042                     ___flmul@temp:
   386                           
   387                           ; 2 bytes @ 0x22
   388  0042                     	ds	2
   389  0044                     ?___fldiv:
   390  0044                     ___fldiv@a:	
   391                           ; 4 bytes @ 0x24
   392                           
   393                           
   394                           ; 4 bytes @ 0x24
   395  0044                     	ds	4
   396  0048                     ___fldiv@b:
   397                           
   398                           ; 4 bytes @ 0x28
   399  0048                     	ds	4
   400  004C                     ??___fldiv:
   401                           
   402                           ; 1 bytes @ 0x2C
   403  004C                     	ds	5
   404  0051                     ___fldiv@rem:
   405                           
   406                           ; 4 bytes @ 0x31
   407  0051                     	ds	4
   408  0055                     ___fldiv@sign:
   409                           
   410                           ; 1 bytes @ 0x35
   411  0055                     	ds	1
   412  0056                     ___fldiv@new_exp:
   413                           
   414                           ; 2 bytes @ 0x36
   415  0056                     	ds	2
   416  0058                     ___fldiv@grs:
   417                           
   418                           ; 4 bytes @ 0x38
   419  0058                     	ds	4
   420  005C                     ___fldiv@bexp:
   421                           
   422                           ; 1 bytes @ 0x3C
   423  005C                     	ds	1
   424  005D                     ___fldiv@aexp:
   425                           
   426                           ; 1 bytes @ 0x3D
   427  005D                     	ds	1
   428  005E                     ?___fladd:
   429  005E                     ___fladd@b:	
   430                           ; 4 bytes @ 0x3E
   431                           
   432                           
   433                           ; 4 bytes @ 0x3E
   434  005E                     	ds	4
   435  0062                     ___fladd@a:
   436                           
   437                           ; 4 bytes @ 0x42
   438  0062                     	ds	4
   439  0066                     ??___fladd:
   440                           
   441                           ; 1 bytes @ 0x46
   442  0066                     	ds	8
   443  006E                     ___fltol@sign1:
   444                           
   445                           ; 1 bytes @ 0x4E
   446  006E                     	ds	1
   447  006F                     ___fltol@exp1:
   448                           
   449                           ; 1 bytes @ 0x4F
   450  006F                     	ds	1
   451                           
   452                           	psect	maintext
   453  005C                     __pmaintext:	
   454 ;;
   455 ;;Main: autosize = 0, tempsize = 0, incstack = 0, save=0
   456 ;;
   457 ;; *************** function _main *****************
   458 ;; Defined at:
   459 ;;		line 44 in file "batch.c"
   460 ;; Parameters:    Size  Location     Type
   461 ;;		None
   462 ;; Auto vars:     Size  Location     Type
   463 ;;		None
   464 ;; Return value:  Size  Location     Type
   465 ;;                  1    wreg      void 
   466 ;; Registers used:
   467 ;;		wreg, status,2, status,0, btemp+1, pclath, cstack
   468 ;; Tracked objects:
   469 ;;		On entry : B00/0
   470 ;;		On exit  : 0/0
   471 ;;		Unchanged: 0/0
   472 ;; Data sizes:     COMMON   BANK0   BANK1   BANK3   BANK2
   473 ;;      Params:         0       0       0       0       0
   474 ;;      Locals:         0       0       4       0       0
   475 ;;      Temps:          0       0       0       0       0
   476 ;;      Totals:         0       0       4       0       0
   477 ;;Total ram usage:        4 bytes
   478 ;; Hardware stack levels required when called:    3
   479 ;; This function calls:
   480 ;;		___flmul
   481 ;;		___xxtofl
   482 ;;		_readADC
   483 ;;		_startPWM1
   484 ;;		_startPWM2
   485 ;; This function is called by:
   486 ;;		Startup code after reset
   487 ;; This function uses a non-reentrant model
   488 ;;
   489                           
   490                           
   491                           ;psect for function _main
   492  005C                     _main:
   493  005C                     l1868:	
   494                           ;incstack = 0
   495                           ; Regs used in _main: [wreg+status,2+status,0+btemp+1+pclath+cstack]
   496                           
   497                           
   498                           ;batch.c: 45: 
   499  005C  1683               	bsf	3,5	;RP0=1, select bank1
   500  005D  1303               	bcf	3,6	;RP1=0, select bank1
   501  005E  1087               	bcf	7,1	;volatile
   502                           
   503                           ;batch.c: 46:         battery_current = 0.00488 * readADC(1);
   504  005F  1107               	bcf	7,2	;volatile
   505  0060                     l1870:
   506                           
   507                           ;batch.c: 47:         feedback_voltage =5.55* (0.00488 * readADC(2));
   508  0060  3042               	movlw	66
   509  0061  009F               	movwf	31	;volatile
   510  0062                     l1872:
   511                           
   512                           ;batch.c: 48: 
   513  0062  1283               	bcf	3,5	;RP0=0, select bank0
   514  0063  1303               	bcf	3,6	;RP1=0, select bank0
   515  0064  131F               	bcf	31,6	;volatile
   516  0065                     l1874:
   517                           
   518                           ;batch.c: 49: 
   519  0065  139F               	bcf	31,7	;volatile
   520  0066                     l1876:
   521                           
   522                           ;batch.c: 55:     return;
   523  0066  3045               	movlw	69
   524  0067  1683               	bsf	3,5	;RP0=1, select bank1
   525  0068  1303               	bcf	3,6	;RP1=0, select bank1
   526  0069  00B0               	movwf	(startPWM1@freq+3)^(0+128)
   527  006A  309C               	movlw	156
   528  006B  00AF               	movwf	(startPWM1@freq+2)^(0+128)
   529  006C  3040               	movlw	64
   530  006D  00AE               	movwf	(startPWM1@freq+1)^(0+128)
   531  006E  3000               	movlw	0
   532  006F  00AD               	movwf	startPWM1@freq^(0+128)
   533  0070  305A               	movlw	90
   534  0071  00B1               	movwf	startPWM1@duty^(0+128)
   535  0072  3000               	movlw	0
   536  0073  00B2               	movwf	(startPWM1@duty^(0+128)+1)
   537  0074  120A  158A  23F5  120A  118A  	fcall	_startPWM1
   538  0079                     l1878:
   539                           
   540                           ;batch.c: 56: }
   541  0079  3044               	movlw	68
   542  007A  1683               	bsf	3,5	;RP0=1, select bank1
   543  007B  1303               	bcf	3,6	;RP1=0, select bank1
   544  007C  00B0               	movwf	(startPWM2@freq+3)^(0+128)
   545  007D  307A               	movlw	122
   546  007E  00AF               	movwf	(startPWM2@freq+2)^(0+128)
   547  007F  3000               	movlw	0
   548  0080  00AE               	movwf	(startPWM2@freq+1)^(0+128)
   549  0081  3000               	movlw	0
   550  0082  00AD               	movwf	startPWM2@freq^(0+128)
   551  0083  301E               	movlw	30
   552  0084  00B1               	movwf	startPWM2@duty^(0+128)
   553  0085  3000               	movlw	0
   554  0086  00B2               	movwf	(startPWM2@duty^(0+128)+1)
   555  0087  120A  158A  24AE  120A  118A  	fcall	_startPWM2
   556  008C                     l1880:
   557  008C  303B               	movlw	59
   558  008D  1283               	bcf	3,5	;RP0=0, select bank0
   559  008E  1303               	bcf	3,6	;RP1=0, select bank0
   560  008F  00AD               	movwf	___flmul@b+3
   561  0090  309F               	movlw	159
   562  0091  00AC               	movwf	___flmul@b+2
   563  0092  30E8               	movlw	232
   564  0093  00AB               	movwf	___flmul@b+1
   565  0094  3068               	movlw	104
   566  0095  00AA               	movwf	___flmul@b
   567  0096  3001               	movlw	1
   568  0097  120A  118A  2025  120A  118A  	fcall	_readADC
   569  009C  0870               	movf	?_readADC,w
   570  009D  00F9               	movwf	___xxtofl@val
   571  009E  0871               	movf	?_readADC+1,w
   572  009F  00FA               	movwf	___xxtofl@val+1
   573  00A0  3000               	movlw	0
   574  00A1  1BFA               	btfsc	___xxtofl@val+1,7
   575  00A2  30FF               	movlw	255
   576  00A3  00FB               	movwf	___xxtofl@val+2
   577  00A4  00FC               	movwf	___xxtofl@val+3
   578  00A5  3001               	movlw	1
   579  00A6  120A  158A  2567  120A  118A  	fcall	___xxtofl
   580  00AB  087C               	movf	?___xxtofl+3,w
   581  00AC  1283               	bcf	3,5	;RP0=0, select bank0
   582  00AD  1303               	bcf	3,6	;RP1=0, select bank0
   583  00AE  00B1               	movwf	___flmul@a+3
   584  00AF  087B               	movf	?___xxtofl+2,w
   585  00B0  00B0               	movwf	___flmul@a+2
   586  00B1  087A               	movf	?___xxtofl+1,w
   587  00B2  00AF               	movwf	___flmul@a+1
   588  00B3  0879               	movf	?___xxtofl,w
   589  00B4  00AE               	movwf	___flmul@a
   590  00B5  120A  118A  249B  120A  118A  	fcall	___flmul
   591  00BA  1283               	bcf	3,5	;RP0=0, select bank0
   592  00BB  1303               	bcf	3,6	;RP1=0, select bank0
   593  00BC  082D               	movf	?___flmul+3,w
   594  00BD  1683               	bsf	3,5	;RP0=1, select bank1
   595  00BE  1303               	bcf	3,6	;RP1=0, select bank1
   596  00BF  00C2               	movwf	(_battery_current+3)^(0+128)
   597  00C0  1283               	bcf	3,5	;RP0=0, select bank0
   598  00C1  1303               	bcf	3,6	;RP1=0, select bank0
   599  00C2  082C               	movf	?___flmul+2,w
   600  00C3  1683               	bsf	3,5	;RP0=1, select bank1
   601  00C4  1303               	bcf	3,6	;RP1=0, select bank1
   602  00C5  00C1               	movwf	(_battery_current+2)^(0+128)
   603  00C6  1283               	bcf	3,5	;RP0=0, select bank0
   604  00C7  1303               	bcf	3,6	;RP1=0, select bank0
   605  00C8  082B               	movf	?___flmul+1,w
   606  00C9  1683               	bsf	3,5	;RP0=1, select bank1
   607  00CA  1303               	bcf	3,6	;RP1=0, select bank1
   608  00CB  00C0               	movwf	(_battery_current+1)^(0+128)
   609  00CC  1283               	bcf	3,5	;RP0=0, select bank0
   610  00CD  1303               	bcf	3,6	;RP1=0, select bank0
   611  00CE  082A               	movf	?___flmul,w
   612  00CF  1683               	bsf	3,5	;RP0=1, select bank1
   613  00D0  1303               	bcf	3,6	;RP1=0, select bank1
   614  00D1  00BF               	movwf	_battery_current^(0+128)
   615  00D2                     l1882:
   616  00D2  303B               	movlw	59
   617  00D3  1283               	bcf	3,5	;RP0=0, select bank0
   618  00D4  1303               	bcf	3,6	;RP1=0, select bank0
   619  00D5  00AD               	movwf	___flmul@b+3
   620  00D6  309F               	movlw	159
   621  00D7  00AC               	movwf	___flmul@b+2
   622  00D8  30E8               	movlw	232
   623  00D9  00AB               	movwf	___flmul@b+1
   624  00DA  3068               	movlw	104
   625  00DB  00AA               	movwf	___flmul@b
   626  00DC  3002               	movlw	2
   627  00DD  120A  118A  2025  120A  118A  	fcall	_readADC
   628  00E2  0870               	movf	?_readADC,w
   629  00E3  00F9               	movwf	___xxtofl@val
   630  00E4  0871               	movf	?_readADC+1,w
   631  00E5  00FA               	movwf	___xxtofl@val+1
   632  00E6  3000               	movlw	0
   633  00E7  1BFA               	btfsc	___xxtofl@val+1,7
   634  00E8  30FF               	movlw	255
   635  00E9  00FB               	movwf	___xxtofl@val+2
   636  00EA  00FC               	movwf	___xxtofl@val+3
   637  00EB  3001               	movlw	1
   638  00EC  120A  158A  2567  120A  118A  	fcall	___xxtofl
   639  00F1  087C               	movf	?___xxtofl+3,w
   640  00F2  1283               	bcf	3,5	;RP0=0, select bank0
   641  00F3  1303               	bcf	3,6	;RP1=0, select bank0
   642  00F4  00B1               	movwf	___flmul@a+3
   643  00F5  087B               	movf	?___xxtofl+2,w
   644  00F6  00B0               	movwf	___flmul@a+2
   645  00F7  087A               	movf	?___xxtofl+1,w
   646  00F8  00AF               	movwf	___flmul@a+1
   647  00F9  0879               	movf	?___xxtofl,w
   648  00FA  00AE               	movwf	___flmul@a
   649  00FB  120A  118A  249B  120A  118A  	fcall	___flmul
   650  0100  1283               	bcf	3,5	;RP0=0, select bank0
   651  0101  1303               	bcf	3,6	;RP1=0, select bank0
   652  0102  082D               	movf	?___flmul+3,w
   653  0103  1683               	bsf	3,5	;RP0=1, select bank1
   654  0104  1303               	bcf	3,6	;RP1=0, select bank1
   655  0105  00BA               	movwf	(_main$673+3)^(0+128)
   656  0106  1283               	bcf	3,5	;RP0=0, select bank0
   657  0107  1303               	bcf	3,6	;RP1=0, select bank0
   658  0108  082C               	movf	?___flmul+2,w
   659  0109  1683               	bsf	3,5	;RP0=1, select bank1
   660  010A  1303               	bcf	3,6	;RP1=0, select bank1
   661  010B  00B9               	movwf	(_main$673+2)^(0+128)
   662  010C  1283               	bcf	3,5	;RP0=0, select bank0
   663  010D  1303               	bcf	3,6	;RP1=0, select bank0
   664  010E  082B               	movf	?___flmul+1,w
   665  010F  1683               	bsf	3,5	;RP0=1, select bank1
   666  0110  1303               	bcf	3,6	;RP1=0, select bank1
   667  0111  00B8               	movwf	(_main$673+1)^(0+128)
   668  0112  1283               	bcf	3,5	;RP0=0, select bank0
   669  0113  1303               	bcf	3,6	;RP1=0, select bank0
   670  0114  082A               	movf	?___flmul,w
   671  0115  1683               	bsf	3,5	;RP0=1, select bank1
   672  0116  1303               	bcf	3,6	;RP1=0, select bank1
   673  0117  00B7               	movwf	_main$673^(0+128)
   674  0118                     l1884:
   675  0118  3040               	movlw	64
   676  0119  1283               	bcf	3,5	;RP0=0, select bank0
   677  011A  1303               	bcf	3,6	;RP1=0, select bank0
   678  011B  00AD               	movwf	___flmul@b+3
   679  011C  30B1               	movlw	177
   680  011D  00AC               	movwf	___flmul@b+2
   681  011E  3099               	movlw	153
   682  011F  00AB               	movwf	___flmul@b+1
   683  0120  309A               	movlw	154
   684  0121  00AA               	movwf	___flmul@b
   685  0122  1683               	bsf	3,5	;RP0=1, select bank1
   686  0123  1303               	bcf	3,6	;RP1=0, select bank1
   687  0124  083A               	movf	(_main$673+3)^(0+128),w
   688  0125  1283               	bcf	3,5	;RP0=0, select bank0
   689  0126  1303               	bcf	3,6	;RP1=0, select bank0
   690  0127  00B1               	movwf	___flmul@a+3
   691  0128  1683               	bsf	3,5	;RP0=1, select bank1
   692  0129  1303               	bcf	3,6	;RP1=0, select bank1
   693  012A  0839               	movf	(_main$673+2)^(0+128),w
   694  012B  1283               	bcf	3,5	;RP0=0, select bank0
   695  012C  1303               	bcf	3,6	;RP1=0, select bank0
   696  012D  00B0               	movwf	___flmul@a+2
   697  012E  1683               	bsf	3,5	;RP0=1, select bank1
   698  012F  1303               	bcf	3,6	;RP1=0, select bank1
   699  0130  0838               	movf	(_main$673+1)^(0+128),w
   700  0131  1283               	bcf	3,5	;RP0=0, select bank0
   701  0132  1303               	bcf	3,6	;RP1=0, select bank0
   702  0133  00AF               	movwf	___flmul@a+1
   703  0134  1683               	bsf	3,5	;RP0=1, select bank1
   704  0135  1303               	bcf	3,6	;RP1=0, select bank1
   705  0136  0837               	movf	_main$673^(0+128),w
   706  0137  1283               	bcf	3,5	;RP0=0, select bank0
   707  0138  1303               	bcf	3,6	;RP1=0, select bank0
   708  0139  00AE               	movwf	___flmul@a
   709  013A  120A  118A  249B  120A  118A  	fcall	___flmul
   710  013F  1283               	bcf	3,5	;RP0=0, select bank0
   711  0140  1303               	bcf	3,6	;RP1=0, select bank0
   712  0141  082D               	movf	?___flmul+3,w
   713  0142  1683               	bsf	3,5	;RP0=1, select bank1
   714  0143  1303               	bcf	3,6	;RP1=0, select bank1
   715  0144  00BE               	movwf	(_feedback_voltage+3)^(0+128)
   716  0145  1283               	bcf	3,5	;RP0=0, select bank0
   717  0146  1303               	bcf	3,6	;RP1=0, select bank0
   718  0147  082C               	movf	?___flmul+2,w
   719  0148  1683               	bsf	3,5	;RP0=1, select bank1
   720  0149  1303               	bcf	3,6	;RP1=0, select bank1
   721  014A  00BD               	movwf	(_feedback_voltage+2)^(0+128)
   722  014B  1283               	bcf	3,5	;RP0=0, select bank0
   723  014C  1303               	bcf	3,6	;RP1=0, select bank0
   724  014D  082B               	movf	?___flmul+1,w
   725  014E  1683               	bsf	3,5	;RP0=1, select bank1
   726  014F  1303               	bcf	3,6	;RP1=0, select bank1
   727  0150  00BC               	movwf	(_feedback_voltage+1)^(0+128)
   728  0151  1283               	bcf	3,5	;RP0=0, select bank0
   729  0152  1303               	bcf	3,6	;RP1=0, select bank0
   730  0153  082A               	movf	?___flmul,w
   731  0154  1683               	bsf	3,5	;RP0=1, select bank1
   732  0155  1303               	bcf	3,6	;RP1=0, select bank1
   733  0156  00BB               	movwf	_feedback_voltage^(0+128)
   734  0157  2866               	goto	l1876
   735  0158  120A  118A  2800   	ljmp	start
   736  015B                     __end_of_main:
   737                           
   738                           	psect	text1
   739  0CAE                     __ptext1:	
   740 ;; *************** function _startPWM2 *****************
   741 ;; Defined at:
   742 ;;		line 25 in file "batch.c"
   743 ;; Parameters:    Size  Location     Type
   744 ;;  freq            4   13[BANK1 ] float 
   745 ;;  duty            2   17[BANK1 ] int 
   746 ;; Auto vars:     Size  Location     Type
   747 ;;  periodt         4   19[BANK1 ] float 
   748 ;; Return value:  Size  Location     Type
   749 ;;                  1    wreg      void 
   750 ;; Registers used:
   751 ;;		wreg, status,2, status,0, btemp+1, pclath, cstack
   752 ;; Tracked objects:
   753 ;;		On entry : 0/0
   754 ;;		On exit  : 0/0
   755 ;;		Unchanged: 0/0
   756 ;; Data sizes:     COMMON   BANK0   BANK1   BANK3   BANK2
   757 ;;      Params:         0       0       6       0       0
   758 ;;      Locals:         0       0       4       0       0
   759 ;;      Temps:          0       0       0       0       0
   760 ;;      Totals:         0       0      10       0       0
   761 ;;Total ram usage:       10 bytes
   762 ;; Hardware stack levels used:    1
   763 ;; Hardware stack levels required when called:    2
   764 ;; This function calls:
   765 ;;		___fladd
   766 ;;		___fldiv
   767 ;;		___flmul
   768 ;;		___fltol
   769 ;; This function is called by:
   770 ;;		_main
   771 ;; This function uses a non-reentrant model
   772 ;;
   773                           
   774                           
   775                           ;psect for function _startPWM2
   776  0CAE                     _startPWM2:
   777  0CAE                     l1804:	
   778                           ;incstack = 0
   779                           ; Regs used in _startPWM2: [wreg+status,2+status,0+btemp+1+pclath+cstack]
   780                           
   781                           
   782                           ;batch.c: 26:      GO_nDONE = 1;
   783  0CAE  300F               	movlw	15
   784  0CAF  1283               	bcf	3,5	;RP0=0, select bank0
   785  0CB0  1303               	bcf	3,6	;RP1=0, select bank0
   786  0CB1  009D               	movwf	29	;volatile
   787  0CB2                     l1806:
   788                           
   789                           ;batch.c: 27:      while(GO_nDONE);
   790  0CB2  1683               	bsf	3,5	;RP0=1, select bank1
   791  0CB3  1303               	bcf	3,6	;RP1=0, select bank1
   792  0CB4  0830               	movf	(startPWM2@freq+3)^(0+128),w
   793  0CB5  1283               	bcf	3,5	;RP0=0, select bank0
   794  0CB6  1303               	bcf	3,6	;RP1=0, select bank0
   795  0CB7  00C7               	movwf	___fldiv@a+3
   796  0CB8  1683               	bsf	3,5	;RP0=1, select bank1
   797  0CB9  1303               	bcf	3,6	;RP1=0, select bank1
   798  0CBA  082F               	movf	(startPWM2@freq+2)^(0+128),w
   799  0CBB  1283               	bcf	3,5	;RP0=0, select bank0
   800  0CBC  1303               	bcf	3,6	;RP1=0, select bank0
   801  0CBD  00C6               	movwf	___fldiv@a+2
   802  0CBE  1683               	bsf	3,5	;RP0=1, select bank1
   803  0CBF  1303               	bcf	3,6	;RP1=0, select bank1
   804  0CC0  082E               	movf	(startPWM2@freq+1)^(0+128),w
   805  0CC1  1283               	bcf	3,5	;RP0=0, select bank0
   806  0CC2  1303               	bcf	3,6	;RP1=0, select bank0
   807  0CC3  00C5               	movwf	___fldiv@a+1
   808  0CC4  1683               	bsf	3,5	;RP0=1, select bank1
   809  0CC5  1303               	bcf	3,6	;RP1=0, select bank1
   810  0CC6  082D               	movf	startPWM2@freq^(0+128),w
   811  0CC7  1283               	bcf	3,5	;RP0=0, select bank0
   812  0CC8  1303               	bcf	3,6	;RP1=0, select bank0
   813  0CC9  00C4               	movwf	___fldiv@a
   814  0CCA  303F               	movlw	63
   815  0CCB  00CB               	movwf	___fldiv@b+3
   816  0CCC  3080               	movlw	128
   817  0CCD  00CA               	movwf	___fldiv@b+2
   818  0CCE  3000               	movlw	0
   819  0CCF  00C9               	movwf	___fldiv@b+1
   820  0CD0  3000               	movlw	0
   821  0CD1  00C8               	movwf	___fldiv@b
   822  0CD2  120A  158A  2623  120A  158A  	fcall	___fldiv
   823  0CD7  1283               	bcf	3,5	;RP0=0, select bank0
   824  0CD8  1303               	bcf	3,6	;RP1=0, select bank0
   825  0CD9  0847               	movf	?___fldiv+3,w
   826  0CDA  1683               	bsf	3,5	;RP0=1, select bank1
   827  0CDB  1303               	bcf	3,6	;RP1=0, select bank1
   828  0CDC  00B6               	movwf	(startPWM2@periodt+3)^(0+128)
   829  0CDD  1283               	bcf	3,5	;RP0=0, select bank0
   830  0CDE  1303               	bcf	3,6	;RP1=0, select bank0
   831  0CDF  0846               	movf	?___fldiv+2,w
   832  0CE0  1683               	bsf	3,5	;RP0=1, select bank1
   833  0CE1  1303               	bcf	3,6	;RP1=0, select bank1
   834  0CE2  00B5               	movwf	(startPWM2@periodt+2)^(0+128)
   835  0CE3  1283               	bcf	3,5	;RP0=0, select bank0
   836  0CE4  1303               	bcf	3,6	;RP1=0, select bank0
   837  0CE5  0845               	movf	?___fldiv+1,w
   838  0CE6  1683               	bsf	3,5	;RP0=1, select bank1
   839  0CE7  1303               	bcf	3,6	;RP1=0, select bank1
   840  0CE8  00B4               	movwf	(startPWM2@periodt+1)^(0+128)
   841  0CE9  1283               	bcf	3,5	;RP0=0, select bank0
   842  0CEA  1303               	bcf	3,6	;RP1=0, select bank0
   843  0CEB  0844               	movf	?___fldiv,w
   844  0CEC  1683               	bsf	3,5	;RP0=1, select bank1
   845  0CED  1303               	bcf	3,6	;RP1=0, select bank1
   846  0CEE  00B3               	movwf	startPWM2@periodt^(0+128)
   847  0CEF                     l1808:
   848                           
   849                           ;batch.c: 28:      ADON = 0;
   850  0CEF  0836               	movf	(startPWM2@periodt+3)^(0+128),w
   851  0CF0  1283               	bcf	3,5	;RP0=0, select bank0
   852  0CF1  1303               	bcf	3,6	;RP1=0, select bank0
   853  0CF2  00B1               	movwf	___flmul@a+3
   854  0CF3  1683               	bsf	3,5	;RP0=1, select bank1
   855  0CF4  1303               	bcf	3,6	;RP1=0, select bank1
   856  0CF5  0835               	movf	(startPWM2@periodt+2)^(0+128),w
   857  0CF6  1283               	bcf	3,5	;RP0=0, select bank0
   858  0CF7  1303               	bcf	3,6	;RP1=0, select bank0
   859  0CF8  00B0               	movwf	___flmul@a+2
   860  0CF9  1683               	bsf	3,5	;RP0=1, select bank1
   861  0CFA  1303               	bcf	3,6	;RP1=0, select bank1
   862  0CFB  0834               	movf	(startPWM2@periodt+1)^(0+128),w
   863  0CFC  1283               	bcf	3,5	;RP0=0, select bank0
   864  0CFD  1303               	bcf	3,6	;RP1=0, select bank0
   865  0CFE  00AF               	movwf	___flmul@a+1
   866  0CFF  1683               	bsf	3,5	;RP0=1, select bank1
   867  0D00  1303               	bcf	3,6	;RP1=0, select bank1
   868  0D01  0833               	movf	startPWM2@periodt^(0+128),w
   869  0D02  1283               	bcf	3,5	;RP0=0, select bank0
   870  0D03  1303               	bcf	3,6	;RP1=0, select bank0
   871  0D04  00AE               	movwf	___flmul@a
   872  0D05  304B               	movlw	75
   873  0D06  00AD               	movwf	___flmul@b+3
   874  0D07  3098               	movlw	152
   875  0D08  00AC               	movwf	___flmul@b+2
   876  0D09  3096               	movlw	150
   877  0D0A  00AB               	movwf	___flmul@b+1
   878  0D0B  3080               	movlw	128
   879  0D0C  00AA               	movwf	___flmul@b
   880  0D0D  120A  118A  249B  120A  158A  	fcall	___flmul
   881  0D12  1283               	bcf	3,5	;RP0=0, select bank0
   882  0D13  1303               	bcf	3,6	;RP1=0, select bank0
   883  0D14  082D               	movf	?___flmul+3,w
   884  0D15  00CB               	movwf	___fldiv@b+3
   885  0D16  082C               	movf	?___flmul+2,w
   886  0D17  00CA               	movwf	___fldiv@b+2
   887  0D18  082B               	movf	?___flmul+1,w
   888  0D19  00C9               	movwf	___fldiv@b+1
   889  0D1A  082A               	movf	?___flmul,w
   890  0D1B  00C8               	movwf	___fldiv@b
   891  0D1C  3041               	movlw	65
   892  0D1D  00C7               	movwf	___fldiv@a+3
   893  0D1E  3080               	movlw	128
   894  0D1F  00C6               	movwf	___fldiv@a+2
   895  0D20  3000               	movlw	0
   896  0D21  00C5               	movwf	___fldiv@a+1
   897  0D22  3000               	movlw	0
   898  0D23  00C4               	movwf	___fldiv@a
   899  0D24  120A  158A  2623  120A  158A  	fcall	___fldiv
   900  0D29  1283               	bcf	3,5	;RP0=0, select bank0
   901  0D2A  1303               	bcf	3,6	;RP1=0, select bank0
   902  0D2B  0847               	movf	?___fldiv+3,w
   903  0D2C  00E5               	movwf	___fladd@a+3
   904  0D2D  0846               	movf	?___fldiv+2,w
   905  0D2E  00E4               	movwf	___fladd@a+2
   906  0D2F  0845               	movf	?___fldiv+1,w
   907  0D30  00E3               	movwf	___fladd@a+1
   908  0D31  0844               	movf	?___fldiv,w
   909  0D32  00E2               	movwf	___fladd@a
   910  0D33  30BF               	movlw	191
   911  0D34  00E1               	movwf	___fladd@b+3
   912  0D35  3080               	movlw	128
   913  0D36  00E0               	movwf	___fladd@b+2
   914  0D37  3000               	movlw	0
   915  0D38  00DF               	movwf	___fladd@b+1
   916  0D39  3000               	movlw	0
   917  0D3A  00DE               	movwf	___fladd@b
   918  0D3B  120A  118A  215B  120A  158A  	fcall	___fladd
   919  0D40  1283               	bcf	3,5	;RP0=0, select bank0
   920  0D41  1303               	bcf	3,6	;RP1=0, select bank0
   921  0D42  0861               	movf	?___fladd+3,w
   922  0D43  1683               	bsf	3,5	;RP0=1, select bank1
   923  0D44  1303               	bcf	3,6	;RP1=0, select bank1
   924  0D45  00A7               	movwf	(___fltol@f1+3)^(0+128)
   925  0D46  1283               	bcf	3,5	;RP0=0, select bank0
   926  0D47  1303               	bcf	3,6	;RP1=0, select bank0
   927  0D48  0860               	movf	?___fladd+2,w
   928  0D49  1683               	bsf	3,5	;RP0=1, select bank1
   929  0D4A  1303               	bcf	3,6	;RP1=0, select bank1
   930  0D4B  00A6               	movwf	(___fltol@f1+2)^(0+128)
   931  0D4C  1283               	bcf	3,5	;RP0=0, select bank0
   932  0D4D  1303               	bcf	3,6	;RP1=0, select bank0
   933  0D4E  085F               	movf	?___fladd+1,w
   934  0D4F  1683               	bsf	3,5	;RP0=1, select bank1
   935  0D50  1303               	bcf	3,6	;RP1=0, select bank1
   936  0D51  00A5               	movwf	(___fltol@f1+1)^(0+128)
   937  0D52  1283               	bcf	3,5	;RP0=0, select bank0
   938  0D53  1303               	bcf	3,6	;RP1=0, select bank0
   939  0D54  085E               	movf	?___fladd,w
   940  0D55  1683               	bsf	3,5	;RP0=1, select bank1
   941  0D56  1303               	bcf	3,6	;RP1=0, select bank1
   942  0D57  00A4               	movwf	___fltol@f1^(0+128)
   943  0D58  120A  158A  2363  120A  158A  	fcall	___fltol
   944  0D5D  1683               	bsf	3,5	;RP0=1, select bank1
   945  0D5E  1303               	bcf	3,6	;RP1=0, select bank1
   946  0D5F  0824               	movf	?___fltol^(0+128),w
   947  0D60  0092               	movwf	18	;volatile
   948                           
   949                           ;batch.c: 29:     int res = ADRESL + 128* ADRESH;
   950  0D61  0831               	movf	startPWM2@duty^(0+128),w
   951  0D62  1283               	bcf	3,5	;RP0=0, select bank0
   952  0D63  1303               	bcf	3,6	;RP1=0, select bank0
   953  0D64  009B               	movwf	27	;volatile
   954  0D65                     l1810:
   955                           
   956                           ;batch.c: 30:     return res;
   957  0D65  1512               	bsf	18,2	;volatile
   958  0D66                     l48:
   959  0D66  0008               	return
   960  0D67                     __end_of_startPWM2:
   961                           
   962                           	psect	text2
   963  0BF5                     __ptext2:	
   964 ;; *************** function _startPWM1 *****************
   965 ;; Defined at:
   966 ;;		line 18 in file "batch.c"
   967 ;; Parameters:    Size  Location     Type
   968 ;;  freq            4   13[BANK1 ] float 
   969 ;;  duty            2   17[BANK1 ] int 
   970 ;; Auto vars:     Size  Location     Type
   971 ;;  periodt         4   19[BANK1 ] float 
   972 ;; Return value:  Size  Location     Type
   973 ;;                  1    wreg      void 
   974 ;; Registers used:
   975 ;;		wreg, status,2, status,0, btemp+1, pclath, cstack
   976 ;; Tracked objects:
   977 ;;		On entry : 0/0
   978 ;;		On exit  : 0/0
   979 ;;		Unchanged: 0/0
   980 ;; Data sizes:     COMMON   BANK0   BANK1   BANK3   BANK2
   981 ;;      Params:         0       0       6       0       0
   982 ;;      Locals:         0       0       4       0       0
   983 ;;      Temps:          0       0       0       0       0
   984 ;;      Totals:         0       0      10       0       0
   985 ;;Total ram usage:       10 bytes
   986 ;; Hardware stack levels used:    1
   987 ;; Hardware stack levels required when called:    2
   988 ;; This function calls:
   989 ;;		___fladd
   990 ;;		___fldiv
   991 ;;		___flmul
   992 ;;		___fltol
   993 ;; This function is called by:
   994 ;;		_main
   995 ;; This function uses a non-reentrant model
   996 ;;
   997                           
   998                           
   999                           ;psect for function _startPWM1
  1000  0BF5                     _startPWM1:
  1001  0BF5                     l1796:	
  1002                           ;incstack = 0
  1003                           ; Regs used in _startPWM1: [wreg+status,2+status,0+btemp+1+pclath+cstack]
  1004                           
  1005                           
  1006                           ;batch.c: 19:     }
  1007  0BF5  300F               	movlw	15
  1008  0BF6  1283               	bcf	3,5	;RP0=0, select bank0
  1009  0BF7  1303               	bcf	3,6	;RP1=0, select bank0
  1010  0BF8  0097               	movwf	23	;volatile
  1011  0BF9                     l1798:
  1012                           
  1013                           ;batch.c: 20:  int readADC(char ADCpin){
  1014  0BF9  1683               	bsf	3,5	;RP0=1, select bank1
  1015  0BFA  1303               	bcf	3,6	;RP1=0, select bank1
  1016  0BFB  0830               	movf	(startPWM1@freq+3)^(0+128),w
  1017  0BFC  1283               	bcf	3,5	;RP0=0, select bank0
  1018  0BFD  1303               	bcf	3,6	;RP1=0, select bank0
  1019  0BFE  00C7               	movwf	___fldiv@a+3
  1020  0BFF  1683               	bsf	3,5	;RP0=1, select bank1
  1021  0C00  1303               	bcf	3,6	;RP1=0, select bank1
  1022  0C01  082F               	movf	(startPWM1@freq+2)^(0+128),w
  1023  0C02  1283               	bcf	3,5	;RP0=0, select bank0
  1024  0C03  1303               	bcf	3,6	;RP1=0, select bank0
  1025  0C04  00C6               	movwf	___fldiv@a+2
  1026  0C05  1683               	bsf	3,5	;RP0=1, select bank1
  1027  0C06  1303               	bcf	3,6	;RP1=0, select bank1
  1028  0C07  082E               	movf	(startPWM1@freq+1)^(0+128),w
  1029  0C08  1283               	bcf	3,5	;RP0=0, select bank0
  1030  0C09  1303               	bcf	3,6	;RP1=0, select bank0
  1031  0C0A  00C5               	movwf	___fldiv@a+1
  1032  0C0B  1683               	bsf	3,5	;RP0=1, select bank1
  1033  0C0C  1303               	bcf	3,6	;RP1=0, select bank1
  1034  0C0D  082D               	movf	startPWM1@freq^(0+128),w
  1035  0C0E  1283               	bcf	3,5	;RP0=0, select bank0
  1036  0C0F  1303               	bcf	3,6	;RP1=0, select bank0
  1037  0C10  00C4               	movwf	___fldiv@a
  1038  0C11  303F               	movlw	63
  1039  0C12  00CB               	movwf	___fldiv@b+3
  1040  0C13  3080               	movlw	128
  1041  0C14  00CA               	movwf	___fldiv@b+2
  1042  0C15  3000               	movlw	0
  1043  0C16  00C9               	movwf	___fldiv@b+1
  1044  0C17  3000               	movlw	0
  1045  0C18  00C8               	movwf	___fldiv@b
  1046  0C19  120A  158A  2623  120A  158A  	fcall	___fldiv
  1047  0C1E  1283               	bcf	3,5	;RP0=0, select bank0
  1048  0C1F  1303               	bcf	3,6	;RP1=0, select bank0
  1049  0C20  0847               	movf	?___fldiv+3,w
  1050  0C21  1683               	bsf	3,5	;RP0=1, select bank1
  1051  0C22  1303               	bcf	3,6	;RP1=0, select bank1
  1052  0C23  00B6               	movwf	(startPWM1@periodt+3)^(0+128)
  1053  0C24  1283               	bcf	3,5	;RP0=0, select bank0
  1054  0C25  1303               	bcf	3,6	;RP1=0, select bank0
  1055  0C26  0846               	movf	?___fldiv+2,w
  1056  0C27  1683               	bsf	3,5	;RP0=1, select bank1
  1057  0C28  1303               	bcf	3,6	;RP1=0, select bank1
  1058  0C29  00B5               	movwf	(startPWM1@periodt+2)^(0+128)
  1059  0C2A  1283               	bcf	3,5	;RP0=0, select bank0
  1060  0C2B  1303               	bcf	3,6	;RP1=0, select bank0
  1061  0C2C  0845               	movf	?___fldiv+1,w
  1062  0C2D  1683               	bsf	3,5	;RP0=1, select bank1
  1063  0C2E  1303               	bcf	3,6	;RP1=0, select bank1
  1064  0C2F  00B4               	movwf	(startPWM1@periodt+1)^(0+128)
  1065  0C30  1283               	bcf	3,5	;RP0=0, select bank0
  1066  0C31  1303               	bcf	3,6	;RP1=0, select bank0
  1067  0C32  0844               	movf	?___fldiv,w
  1068  0C33  1683               	bsf	3,5	;RP0=1, select bank1
  1069  0C34  1303               	bcf	3,6	;RP1=0, select bank1
  1070  0C35  00B3               	movwf	startPWM1@periodt^(0+128)
  1071  0C36                     l1800:
  1072                           
  1073                           ;batch.c: 21:      CHS0 = ADCpin & 001;
  1074  0C36  0836               	movf	(startPWM1@periodt+3)^(0+128),w
  1075  0C37  1283               	bcf	3,5	;RP0=0, select bank0
  1076  0C38  1303               	bcf	3,6	;RP1=0, select bank0
  1077  0C39  00B1               	movwf	___flmul@a+3
  1078  0C3A  1683               	bsf	3,5	;RP0=1, select bank1
  1079  0C3B  1303               	bcf	3,6	;RP1=0, select bank1
  1080  0C3C  0835               	movf	(startPWM1@periodt+2)^(0+128),w
  1081  0C3D  1283               	bcf	3,5	;RP0=0, select bank0
  1082  0C3E  1303               	bcf	3,6	;RP1=0, select bank0
  1083  0C3F  00B0               	movwf	___flmul@a+2
  1084  0C40  1683               	bsf	3,5	;RP0=1, select bank1
  1085  0C41  1303               	bcf	3,6	;RP1=0, select bank1
  1086  0C42  0834               	movf	(startPWM1@periodt+1)^(0+128),w
  1087  0C43  1283               	bcf	3,5	;RP0=0, select bank0
  1088  0C44  1303               	bcf	3,6	;RP1=0, select bank0
  1089  0C45  00AF               	movwf	___flmul@a+1
  1090  0C46  1683               	bsf	3,5	;RP0=1, select bank1
  1091  0C47  1303               	bcf	3,6	;RP1=0, select bank1
  1092  0C48  0833               	movf	startPWM1@periodt^(0+128),w
  1093  0C49  1283               	bcf	3,5	;RP0=0, select bank0
  1094  0C4A  1303               	bcf	3,6	;RP1=0, select bank0
  1095  0C4B  00AE               	movwf	___flmul@a
  1096  0C4C  304B               	movlw	75
  1097  0C4D  00AD               	movwf	___flmul@b+3
  1098  0C4E  3098               	movlw	152
  1099  0C4F  00AC               	movwf	___flmul@b+2
  1100  0C50  3096               	movlw	150
  1101  0C51  00AB               	movwf	___flmul@b+1
  1102  0C52  3080               	movlw	128
  1103  0C53  00AA               	movwf	___flmul@b
  1104  0C54  120A  118A  249B  120A  158A  	fcall	___flmul
  1105  0C59  1283               	bcf	3,5	;RP0=0, select bank0
  1106  0C5A  1303               	bcf	3,6	;RP1=0, select bank0
  1107  0C5B  082D               	movf	?___flmul+3,w
  1108  0C5C  00CB               	movwf	___fldiv@b+3
  1109  0C5D  082C               	movf	?___flmul+2,w
  1110  0C5E  00CA               	movwf	___fldiv@b+2
  1111  0C5F  082B               	movf	?___flmul+1,w
  1112  0C60  00C9               	movwf	___fldiv@b+1
  1113  0C61  082A               	movf	?___flmul,w
  1114  0C62  00C8               	movwf	___fldiv@b
  1115  0C63  3041               	movlw	65
  1116  0C64  00C7               	movwf	___fldiv@a+3
  1117  0C65  3080               	movlw	128
  1118  0C66  00C6               	movwf	___fldiv@a+2
  1119  0C67  3000               	movlw	0
  1120  0C68  00C5               	movwf	___fldiv@a+1
  1121  0C69  3000               	movlw	0
  1122  0C6A  00C4               	movwf	___fldiv@a
  1123  0C6B  120A  158A  2623  120A  158A  	fcall	___fldiv
  1124  0C70  1283               	bcf	3,5	;RP0=0, select bank0
  1125  0C71  1303               	bcf	3,6	;RP1=0, select bank0
  1126  0C72  0847               	movf	?___fldiv+3,w
  1127  0C73  00E5               	movwf	___fladd@a+3
  1128  0C74  0846               	movf	?___fldiv+2,w
  1129  0C75  00E4               	movwf	___fladd@a+2
  1130  0C76  0845               	movf	?___fldiv+1,w
  1131  0C77  00E3               	movwf	___fladd@a+1
  1132  0C78  0844               	movf	?___fldiv,w
  1133  0C79  00E2               	movwf	___fladd@a
  1134  0C7A  30BF               	movlw	191
  1135  0C7B  00E1               	movwf	___fladd@b+3
  1136  0C7C  3080               	movlw	128
  1137  0C7D  00E0               	movwf	___fladd@b+2
  1138  0C7E  3000               	movlw	0
  1139  0C7F  00DF               	movwf	___fladd@b+1
  1140  0C80  3000               	movlw	0
  1141  0C81  00DE               	movwf	___fladd@b
  1142  0C82  120A  118A  215B  120A  158A  	fcall	___fladd
  1143  0C87  1283               	bcf	3,5	;RP0=0, select bank0
  1144  0C88  1303               	bcf	3,6	;RP1=0, select bank0
  1145  0C89  0861               	movf	?___fladd+3,w
  1146  0C8A  1683               	bsf	3,5	;RP0=1, select bank1
  1147  0C8B  1303               	bcf	3,6	;RP1=0, select bank1
  1148  0C8C  00A7               	movwf	(___fltol@f1+3)^(0+128)
  1149  0C8D  1283               	bcf	3,5	;RP0=0, select bank0
  1150  0C8E  1303               	bcf	3,6	;RP1=0, select bank0
  1151  0C8F  0860               	movf	?___fladd+2,w
  1152  0C90  1683               	bsf	3,5	;RP0=1, select bank1
  1153  0C91  1303               	bcf	3,6	;RP1=0, select bank1
  1154  0C92  00A6               	movwf	(___fltol@f1+2)^(0+128)
  1155  0C93  1283               	bcf	3,5	;RP0=0, select bank0
  1156  0C94  1303               	bcf	3,6	;RP1=0, select bank0
  1157  0C95  085F               	movf	?___fladd+1,w
  1158  0C96  1683               	bsf	3,5	;RP0=1, select bank1
  1159  0C97  1303               	bcf	3,6	;RP1=0, select bank1
  1160  0C98  00A5               	movwf	(___fltol@f1+1)^(0+128)
  1161  0C99  1283               	bcf	3,5	;RP0=0, select bank0
  1162  0C9A  1303               	bcf	3,6	;RP1=0, select bank0
  1163  0C9B  085E               	movf	?___fladd,w
  1164  0C9C  1683               	bsf	3,5	;RP0=1, select bank1
  1165  0C9D  1303               	bcf	3,6	;RP1=0, select bank1
  1166  0C9E  00A4               	movwf	___fltol@f1^(0+128)
  1167  0C9F  120A  158A  2363  120A  158A  	fcall	___fltol
  1168  0CA4  1683               	bsf	3,5	;RP0=1, select bank1
  1169  0CA5  1303               	bcf	3,6	;RP1=0, select bank1
  1170  0CA6  0824               	movf	?___fltol^(0+128),w
  1171  0CA7  0092               	movwf	18	;volatile
  1172                           
  1173                           ;batch.c: 22:      CHS1 = ADCpin & 010;
  1174  0CA8  0831               	movf	startPWM1@duty^(0+128),w
  1175  0CA9  1283               	bcf	3,5	;RP0=0, select bank0
  1176  0CAA  1303               	bcf	3,6	;RP1=0, select bank0
  1177  0CAB  0095               	movwf	21	;volatile
  1178  0CAC                     l1802:
  1179                           
  1180                           ;batch.c: 23:      CHS2 = ADCpin & 100;
  1181  0CAC  1512               	bsf	18,2	;volatile
  1182  0CAD                     l45:
  1183  0CAD  0008               	return
  1184  0CAE                     __end_of_startPWM1:
  1185                           
  1186                           	psect	text3
  1187  0B63                     __ptext3:	
  1188 ;; *************** function ___fltol *****************
  1189 ;; Defined at:
  1190 ;;		line 43 in file "C:\Program Files\Microchip\xc8\v2.30\pic\sources\c90\common\fltol.c"
  1191 ;; Parameters:    Size  Location     Type
  1192 ;;  f1              4    4[BANK1 ] void 
  1193 ;; Auto vars:     Size  Location     Type
  1194 ;;  exp1            1   79[BANK0 ] unsigned char 
  1195 ;;  sign1           1   78[BANK0 ] unsigned char 
  1196 ;; Return value:  Size  Location     Type
  1197 ;;                  4    4[BANK1 ] long 
  1198 ;; Registers used:
  1199 ;;		wreg, status,2, status,0
  1200 ;; Tracked objects:
  1201 ;;		On entry : 0/0
  1202 ;;		On exit  : 0/0
  1203 ;;		Unchanged: 0/0
  1204 ;; Data sizes:     COMMON   BANK0   BANK1   BANK3   BANK2
  1205 ;;      Params:         0       0       4       0       0
  1206 ;;      Locals:         0       2       0       0       0
  1207 ;;      Temps:          0       0       5       0       0
  1208 ;;      Totals:         0       2       9       0       0
  1209 ;;Total ram usage:       11 bytes
  1210 ;; Hardware stack levels used:    1
  1211 ;; This function calls:
  1212 ;;		Nothing
  1213 ;; This function is called by:
  1214 ;;		_startPWM1
  1215 ;;		_startPWM2
  1216 ;; This function uses a non-reentrant model
  1217 ;;
  1218                           
  1219                           
  1220                           ;psect for function ___fltol
  1221  0B63                     ___fltol:
  1222  0B63                     l1284:	
  1223                           ;incstack = 0
  1224                           ; Regs used in ___fltol: [wreg+status,2+status,0]
  1225                           
  1226  0B63  1003               	clrc
  1227  0B64  1683               	bsf	3,5	;RP0=1, select bank1
  1228  0B65  1303               	bcf	3,6	;RP1=0, select bank1
  1229  0B66  0D26               	rlf	(___fltol@f1+2)^(0+128),w
  1230  0B67  0D27               	rlf	(___fltol@f1+3)^(0+128),w
  1231  0B68  00A8               	movwf	??___fltol^(0+128)
  1232  0B69  0828               	movf	??___fltol^(0+128),w
  1233  0B6A  1283               	bcf	3,5	;RP0=0, select bank0
  1234  0B6B  1303               	bcf	3,6	;RP1=0, select bank0
  1235  0B6C  00EF               	movwf	___fltol@exp1
  1236  0B6D  086F               	movf	___fltol@exp1,w
  1237  0B6E  1D03               	btfss	3,2
  1238  0B6F  2B71               	goto	u1471
  1239  0B70  2B72               	goto	u1470
  1240  0B71                     u1471:
  1241  0B71  2B7D               	goto	l1290
  1242  0B72                     u1470:
  1243  0B72                     l1286:
  1244  0B72  3000               	movlw	0
  1245  0B73  1683               	bsf	3,5	;RP0=1, select bank1
  1246  0B74  1303               	bcf	3,6	;RP1=0, select bank1
  1247  0B75  00A7               	movwf	(?___fltol+3)^(0+128)
  1248  0B76  3000               	movlw	0
  1249  0B77  00A6               	movwf	(?___fltol+2)^(0+128)
  1250  0B78  3000               	movlw	0
  1251  0B79  00A5               	movwf	(?___fltol+1)^(0+128)
  1252  0B7A  3000               	movlw	0
  1253  0B7B  00A4               	movwf	?___fltol^(0+128)
  1254  0B7C  2BF4               	goto	l334
  1255  0B7D                     l1290:
  1256  0B7D  1683               	bsf	3,5	;RP0=1, select bank1
  1257  0B7E  1303               	bcf	3,6	;RP1=0, select bank1
  1258  0B7F  0824               	movf	___fltol@f1^(0+128),w
  1259  0B80  00A8               	movwf	??___fltol^(0+128)
  1260  0B81  0825               	movf	(___fltol@f1+1)^(0+128),w
  1261  0B82  00A9               	movwf	(??___fltol^(0+128)+1)
  1262  0B83  0826               	movf	(___fltol@f1+2)^(0+128),w
  1263  0B84  00AA               	movwf	(??___fltol^(0+128)+2)
  1264  0B85  0827               	movf	(___fltol@f1+3)^(0+128),w
  1265  0B86  00AB               	movwf	(??___fltol^(0+128)+3)
  1266  0B87  301F               	movlw	31
  1267  0B88                     u1485:
  1268  0B88  1003               	clrc
  1269  0B89  0CAB               	rrf	(??___fltol^(0+128)+3),f
  1270  0B8A  0CAA               	rrf	(??___fltol^(0+128)+2),f
  1271  0B8B  0CA9               	rrf	(??___fltol^(0+128)+1),f
  1272  0B8C  0CA8               	rrf	??___fltol^(0+128),f
  1273  0B8D                     u1480:
  1274  0B8D  3EFF               	addlw	-1
  1275  0B8E  1D03               	skipz
  1276  0B8F  2B88               	goto	u1485
  1277  0B90  0828               	movf	??___fltol^(0+128),w
  1278  0B91  00AC               	movwf	(??___fltol+4)^(0+128)
  1279  0B92  082C               	movf	(??___fltol+4)^(0+128),w
  1280  0B93  1283               	bcf	3,5	;RP0=0, select bank0
  1281  0B94  1303               	bcf	3,6	;RP1=0, select bank0
  1282  0B95  00EE               	movwf	___fltol@sign1
  1283  0B96                     l1292:
  1284  0B96  1683               	bsf	3,5	;RP0=1, select bank1
  1285  0B97  1303               	bcf	3,6	;RP1=0, select bank1
  1286  0B98  17A6               	bsf	(___fltol@f1^(0+128)+2),7
  1287  0B99                     l1294:
  1288  0B99  30FF               	movlw	255
  1289  0B9A  05A4               	andwf	___fltol@f1^(0+128),f
  1290  0B9B  30FF               	movlw	255
  1291  0B9C  05A5               	andwf	(___fltol@f1+1)^(0+128),f
  1292  0B9D  30FF               	movlw	255
  1293  0B9E  05A6               	andwf	(___fltol@f1+2)^(0+128),f
  1294  0B9F  3000               	movlw	0
  1295  0BA0  05A7               	andwf	(___fltol@f1+3)^(0+128),f
  1296  0BA1                     l1296:
  1297  0BA1  3096               	movlw	150
  1298  0BA2  1283               	bcf	3,5	;RP0=0, select bank0
  1299  0BA3  1303               	bcf	3,6	;RP1=0, select bank0
  1300  0BA4  02EF               	subwf	___fltol@exp1,f
  1301  0BA5                     l1298:
  1302  0BA5  1FEF               	btfss	___fltol@exp1,7
  1303  0BA6  2BA8               	goto	u1491
  1304  0BA7  2BA9               	goto	u1490
  1305  0BA8                     u1491:
  1306  0BA8  2BC7               	goto	l1308
  1307  0BA9                     u1490:
  1308  0BA9                     l1300:
  1309  0BA9  086F               	movf	___fltol@exp1,w
  1310  0BAA  3A80               	xorlw	128
  1311  0BAB  3E97               	addlw	151
  1312  0BAC  1803               	skipnc
  1313  0BAD  2BAF               	goto	u1501
  1314  0BAE  2BB0               	goto	u1500
  1315  0BAF                     u1501:
  1316  0BAF  2BB1               	goto	l1306
  1317  0BB0                     u1500:
  1318  0BB0  2B72               	goto	l1286
  1319  0BB1                     l1306:
  1320  0BB1  3001               	movlw	1
  1321  0BB2                     u1515:
  1322  0BB2  1003               	clrc
  1323  0BB3  1683               	bsf	3,5	;RP0=1, select bank1
  1324  0BB4  1303               	bcf	3,6	;RP1=0, select bank1
  1325  0BB5  0CA7               	rrf	(___fltol@f1+3)^(0+128),f
  1326  0BB6  0CA6               	rrf	(___fltol@f1+2)^(0+128),f
  1327  0BB7  0CA5               	rrf	(___fltol@f1+1)^(0+128),f
  1328  0BB8  0CA4               	rrf	___fltol@f1^(0+128),f
  1329  0BB9  3EFF               	addlw	-1
  1330  0BBA  1D03               	skipz
  1331  0BBB  2BB2               	goto	u1515
  1332  0BBC  3001               	movlw	1
  1333  0BBD  00A8               	movwf	??___fltol^(0+128)
  1334  0BBE  0828               	movf	??___fltol^(0+128),w
  1335  0BBF  1283               	bcf	3,5	;RP0=0, select bank0
  1336  0BC0  1303               	bcf	3,6	;RP1=0, select bank0
  1337  0BC1  07EF               	addwf	___fltol@exp1,f
  1338  0BC2  1D03               	btfss	3,2
  1339  0BC3  2BC5               	goto	u1521
  1340  0BC4  2BC6               	goto	u1520
  1341  0BC5                     u1521:
  1342  0BC5  2BB1               	goto	l1306
  1343  0BC6                     u1520:
  1344  0BC6  2BE2               	goto	l1316
  1345  0BC7                     l1308:
  1346  0BC7  3020               	movlw	32
  1347  0BC8  026F               	subwf	___fltol@exp1,w
  1348  0BC9  1C03               	skipc
  1349  0BCA  2BCC               	goto	u1531
  1350  0BCB  2BCD               	goto	u1530
  1351  0BCC                     u1531:
  1352  0BCC  2BDD               	goto	l341
  1353  0BCD                     u1530:
  1354  0BCD  2B72               	goto	l1286
  1355  0BCE                     l1314:
  1356  0BCE  3001               	movlw	1
  1357  0BCF  1683               	bsf	3,5	;RP0=1, select bank1
  1358  0BD0  1303               	bcf	3,6	;RP1=0, select bank1
  1359  0BD1  00A8               	movwf	??___fltol^(0+128)
  1360  0BD2                     u1545:
  1361  0BD2  1003               	clrc
  1362  0BD3  0DA4               	rlf	___fltol@f1^(0+128),f
  1363  0BD4  0DA5               	rlf	(___fltol@f1+1)^(0+128),f
  1364  0BD5  0DA6               	rlf	(___fltol@f1+2)^(0+128),f
  1365  0BD6  0DA7               	rlf	(___fltol@f1+3)^(0+128),f
  1366  0BD7  0BA8               	decfsz	??___fltol^(0+128),f
  1367  0BD8  2BD2               	goto	u1545
  1368  0BD9  3001               	movlw	1
  1369  0BDA  1283               	bcf	3,5	;RP0=0, select bank0
  1370  0BDB  1303               	bcf	3,6	;RP1=0, select bank0
  1371  0BDC  02EF               	subwf	___fltol@exp1,f
  1372  0BDD                     l341:
  1373  0BDD  086F               	movf	___fltol@exp1,w
  1374  0BDE  1D03               	btfss	3,2
  1375  0BDF  2BE1               	goto	u1551
  1376  0BE0  2BE2               	goto	u1550
  1377  0BE1                     u1551:
  1378  0BE1  2BCE               	goto	l1314
  1379  0BE2                     u1550:
  1380  0BE2                     l1316:
  1381  0BE2  086E               	movf	___fltol@sign1,w
  1382  0BE3  1903               	btfsc	3,2
  1383  0BE4  2BE6               	goto	u1561
  1384  0BE5  2BE7               	goto	u1560
  1385  0BE6                     u1561:
  1386  0BE6  2BF4               	goto	l344
  1387  0BE7                     u1560:
  1388  0BE7                     l1318:
  1389  0BE7  1683               	bsf	3,5	;RP0=1, select bank1
  1390  0BE8  1303               	bcf	3,6	;RP1=0, select bank1
  1391  0BE9  09A4               	comf	___fltol@f1^(0+128),f
  1392  0BEA  09A5               	comf	(___fltol@f1+1)^(0+128),f
  1393  0BEB  09A6               	comf	(___fltol@f1+2)^(0+128),f
  1394  0BEC  09A7               	comf	(___fltol@f1+3)^(0+128),f
  1395  0BED  0AA4               	incf	___fltol@f1^(0+128),f
  1396  0BEE  1903               	skipnz
  1397  0BEF  0AA5               	incf	(___fltol@f1+1)^(0+128),f
  1398  0BF0  1903               	skipnz
  1399  0BF1  0AA6               	incf	(___fltol@f1+2)^(0+128),f
  1400  0BF2  1903               	skipnz
  1401  0BF3  0AA7               	incf	(___fltol@f1+3)^(0+128),f
  1402  0BF4                     l344:
  1403  0BF4                     l334:
  1404  0BF4  0008               	return
  1405  0BF5                     __end_of___fltol:
  1406                           
  1407                           	psect	text4
  1408  049B                     __ptext4:	
  1409 ;; *************** function ___flmul *****************
  1410 ;; Defined at:
  1411 ;;		line 8 in file "C:\Program Files\Microchip\xc8\v2.30\pic\sources\c90\common\sprcmul.c"
  1412 ;; Parameters:    Size  Location     Type
  1413 ;;  b               4   10[BANK0 ] long 
  1414 ;;  a               4   14[BANK0 ] long 
  1415 ;; Auto vars:     Size  Location     Type
  1416 ;;  prod            4   30[BANK0 ] struct .
  1417 ;;  grs             4   24[BANK0 ] unsigned long 
  1418 ;;  temp            2   34[BANK0 ] struct .
  1419 ;;  bexp            1   29[BANK0 ] unsigned char 
  1420 ;;  aexp            1   28[BANK0 ] unsigned char 
  1421 ;;  sign            1   23[BANK0 ] unsigned char 
  1422 ;; Return value:  Size  Location     Type
  1423 ;;                  4   10[BANK0 ] unsigned char 
  1424 ;; Registers used:
  1425 ;;		wreg, status,2, status,0, btemp+1, pclath, cstack
  1426 ;; Tracked objects:
  1427 ;;		On entry : 0/0
  1428 ;;		On exit  : 0/0
  1429 ;;		Unchanged: 0/0
  1430 ;; Data sizes:     COMMON   BANK0   BANK1   BANK3   BANK2
  1431 ;;      Params:         0       8       0       0       0
  1432 ;;      Locals:         0      13       0       0       0
  1433 ;;      Temps:          0       5       0       0       0
  1434 ;;      Totals:         0      26       0       0       0
  1435 ;;Total ram usage:       26 bytes
  1436 ;; Hardware stack levels used:    1
  1437 ;; Hardware stack levels required when called:    1
  1438 ;; This function calls:
  1439 ;;		__Umul8_16
  1440 ;; This function is called by:
  1441 ;;		_startPWM1
  1442 ;;		_startPWM2
  1443 ;;		_main
  1444 ;; This function uses a non-reentrant model
  1445 ;;
  1446                           
  1447                           
  1448                           ;psect for function ___flmul
  1449  049B                     ___flmul:
  1450  049B                     l1656:	
  1451                           ;incstack = 0
  1452                           ; Regs used in ___flmul: [wreg+status,2+status,0+btemp+1+pclath+cstack]
  1453                           
  1454  049B  1283               	bcf	3,5	;RP0=0, select bank0
  1455  049C  1303               	bcf	3,6	;RP1=0, select bank0
  1456  049D  082D               	movf	___flmul@b+3,w
  1457  049E  3980               	andlw	128
  1458  049F  00B2               	movwf	??___flmul
  1459  04A0  0832               	movf	??___flmul,w
  1460  04A1  00B7               	movwf	___flmul@sign
  1461  04A2                     l1658:
  1462  04A2  082D               	movf	___flmul@b+3,w
  1463  04A3  00B2               	movwf	??___flmul
  1464  04A4  0732               	addwf	??___flmul,w
  1465  04A5  00B3               	movwf	??___flmul+1
  1466  04A6  0833               	movf	??___flmul+1,w
  1467  04A7  00BD               	movwf	___flmul@bexp
  1468  04A8                     l1660:
  1469  04A8  1FAC               	btfss	___flmul@b+2,7
  1470  04A9  2CAB               	goto	u2321
  1471  04AA  2CAC               	goto	u2320
  1472  04AB                     u2321:
  1473  04AB  2CAD               	goto	l1664
  1474  04AC                     u2320:
  1475  04AC                     l1662:
  1476  04AC  143D               	bsf	___flmul@bexp,0
  1477  04AD                     l1664:
  1478  04AD  083D               	movf	___flmul@bexp,w
  1479  04AE  1903               	btfsc	3,2
  1480  04AF  2CB1               	goto	u2331
  1481  04B0  2CB2               	goto	u2330
  1482  04B1                     u2331:
  1483  04B1  2CC1               	goto	l1672
  1484  04B2                     u2330:
  1485  04B2                     l1666:
  1486  04B2  0A3D               	incf	___flmul@bexp,w
  1487  04B3  1D03               	btfss	3,2
  1488  04B4  2CB6               	goto	u2341
  1489  04B5  2CB7               	goto	u2340
  1490  04B6                     u2341:
  1491  04B6  2CBF               	goto	l1670
  1492  04B7                     u2340:
  1493  04B7                     l1668:
  1494  04B7  3000               	movlw	0
  1495  04B8  00AD               	movwf	___flmul@b+3
  1496  04B9  3000               	movlw	0
  1497  04BA  00AC               	movwf	___flmul@b+2
  1498  04BB  3000               	movlw	0
  1499  04BC  00AB               	movwf	___flmul@b+1
  1500  04BD  3000               	movlw	0
  1501  04BE  00AA               	movwf	___flmul@b
  1502  04BF                     l1670:
  1503  04BF  17AC               	bsf	___flmul@b+2,7
  1504  04C0  2CC9               	goto	l1674
  1505  04C1                     l1672:
  1506  04C1  3000               	movlw	0
  1507  04C2  00AD               	movwf	___flmul@b+3
  1508  04C3  3000               	movlw	0
  1509  04C4  00AC               	movwf	___flmul@b+2
  1510  04C5  3000               	movlw	0
  1511  04C6  00AB               	movwf	___flmul@b+1
  1512  04C7  3000               	movlw	0
  1513  04C8  00AA               	movwf	___flmul@b
  1514  04C9                     l1674:
  1515  04C9  0831               	movf	___flmul@a+3,w
  1516  04CA  3980               	andlw	128
  1517  04CB  00B2               	movwf	??___flmul
  1518  04CC  0832               	movf	??___flmul,w
  1519  04CD  06B7               	xorwf	___flmul@sign,f
  1520  04CE                     l1676:
  1521  04CE  0831               	movf	___flmul@a+3,w
  1522  04CF  00B2               	movwf	??___flmul
  1523  04D0  0732               	addwf	??___flmul,w
  1524  04D1  00B3               	movwf	??___flmul+1
  1525  04D2  0833               	movf	??___flmul+1,w
  1526  04D3  00BC               	movwf	___flmul@aexp
  1527  04D4                     l1678:
  1528  04D4  1FB0               	btfss	___flmul@a+2,7
  1529  04D5  2CD7               	goto	u2351
  1530  04D6  2CD8               	goto	u2350
  1531  04D7                     u2351:
  1532  04D7  2CD9               	goto	l1682
  1533  04D8                     u2350:
  1534  04D8                     l1680:
  1535  04D8  143C               	bsf	___flmul@aexp,0
  1536  04D9                     l1682:
  1537  04D9  083C               	movf	___flmul@aexp,w
  1538  04DA  1903               	btfsc	3,2
  1539  04DB  2CDD               	goto	u2361
  1540  04DC  2CDE               	goto	u2360
  1541  04DD                     u2361:
  1542  04DD  2CED               	goto	l1690
  1543  04DE                     u2360:
  1544  04DE                     l1684:
  1545  04DE  0A3C               	incf	___flmul@aexp,w
  1546  04DF  1D03               	btfss	3,2
  1547  04E0  2CE2               	goto	u2371
  1548  04E1  2CE3               	goto	u2370
  1549  04E2                     u2371:
  1550  04E2  2CEB               	goto	l1688
  1551  04E3                     u2370:
  1552  04E3                     l1686:
  1553  04E3  3000               	movlw	0
  1554  04E4  00B1               	movwf	___flmul@a+3
  1555  04E5  3000               	movlw	0
  1556  04E6  00B0               	movwf	___flmul@a+2
  1557  04E7  3000               	movlw	0
  1558  04E8  00AF               	movwf	___flmul@a+1
  1559  04E9  3000               	movlw	0
  1560  04EA  00AE               	movwf	___flmul@a
  1561  04EB                     l1688:
  1562  04EB  17B0               	bsf	___flmul@a+2,7
  1563  04EC  2CF5               	goto	l1692
  1564  04ED                     l1690:
  1565  04ED  3000               	movlw	0
  1566  04EE  00B1               	movwf	___flmul@a+3
  1567  04EF  3000               	movlw	0
  1568  04F0  00B0               	movwf	___flmul@a+2
  1569  04F1  3000               	movlw	0
  1570  04F2  00AF               	movwf	___flmul@a+1
  1571  04F3  3000               	movlw	0
  1572  04F4  00AE               	movwf	___flmul@a
  1573  04F5                     l1692:
  1574  04F5  083C               	movf	___flmul@aexp,w
  1575  04F6  1903               	btfsc	3,2
  1576  04F7  2CF9               	goto	u2381
  1577  04F8  2CFA               	goto	u2380
  1578  04F9                     u2381:
  1579  04F9  2CFF               	goto	l1696
  1580  04FA                     u2380:
  1581  04FA                     l1694:
  1582  04FA  083D               	movf	___flmul@bexp,w
  1583  04FB  1D03               	btfss	3,2
  1584  04FC  2CFE               	goto	u2391
  1585  04FD  2CFF               	goto	u2390
  1586  04FE                     u2391:
  1587  04FE  2D08               	goto	l1700
  1588  04FF                     u2390:
  1589  04FF                     l1696:
  1590  04FF  3000               	movlw	0
  1591  0500  00AD               	movwf	?___flmul+3
  1592  0501  3000               	movlw	0
  1593  0502  00AC               	movwf	?___flmul+2
  1594  0503  3000               	movlw	0
  1595  0504  00AB               	movwf	?___flmul+1
  1596  0505  3000               	movlw	0
  1597  0506  00AA               	movwf	?___flmul
  1598  0507  2FFB               	goto	l537
  1599  0508                     l1700:
  1600  0508  082A               	movf	___flmul@b,w
  1601  0509  00B2               	movwf	??___flmul
  1602  050A  0832               	movf	??___flmul,w
  1603  050B  00F0               	movwf	__Umul8_16@multiplicand
  1604  050C  0830               	movf	___flmul@a+2,w
  1605  050D  120A  158A  233C  120A  118A  	fcall	__Umul8_16
  1606  0512  0871               	movf	?__Umul8_16+1,w
  1607  0513  1283               	bcf	3,5	;RP0=0, select bank0
  1608  0514  1303               	bcf	3,6	;RP1=0, select bank0
  1609  0515  00C3               	movwf	___flmul@temp+1
  1610  0516  0870               	movf	?__Umul8_16,w
  1611  0517  00C2               	movwf	___flmul@temp
  1612  0518                     l1702:
  1613  0518  0842               	movf	___flmul@temp,w
  1614  0519  00B2               	movwf	??___flmul
  1615  051A  01B3               	clrf	??___flmul+1
  1616  051B  01B4               	clrf	??___flmul+2
  1617  051C  01B5               	clrf	??___flmul+3
  1618  051D  0835               	movf	??___flmul+3,w
  1619  051E  00BB               	movwf	___flmul@grs+3
  1620  051F  0834               	movf	??___flmul+2,w
  1621  0520  00BA               	movwf	___flmul@grs+2
  1622  0521  0833               	movf	??___flmul+1,w
  1623  0522  00B9               	movwf	___flmul@grs+1
  1624  0523  0832               	movf	??___flmul,w
  1625  0524  00B8               	movwf	___flmul@grs
  1626  0525                     l1704:
  1627  0525  0843               	movf	___flmul@temp+1,w
  1628  0526  00B2               	movwf	??___flmul
  1629  0527  01B3               	clrf	??___flmul+1
  1630  0528  01B4               	clrf	??___flmul+2
  1631  0529  01B5               	clrf	??___flmul+3
  1632  052A  0835               	movf	??___flmul+3,w
  1633  052B  00C1               	movwf	___flmul@prod+3
  1634  052C  0834               	movf	??___flmul+2,w
  1635  052D  00C0               	movwf	___flmul@prod+2
  1636  052E  0833               	movf	??___flmul+1,w
  1637  052F  00BF               	movwf	___flmul@prod+1
  1638  0530  0832               	movf	??___flmul,w
  1639  0531  00BE               	movwf	___flmul@prod
  1640  0532  082B               	movf	___flmul@b+1,w
  1641  0533  00B2               	movwf	??___flmul
  1642  0534  0832               	movf	??___flmul,w
  1643  0535  00F0               	movwf	__Umul8_16@multiplicand
  1644  0536  082F               	movf	___flmul@a+1,w
  1645  0537  120A  158A  233C  120A  118A  	fcall	__Umul8_16
  1646  053C  0871               	movf	?__Umul8_16+1,w
  1647  053D  1283               	bcf	3,5	;RP0=0, select bank0
  1648  053E  1303               	bcf	3,6	;RP1=0, select bank0
  1649  053F  00C3               	movwf	___flmul@temp+1
  1650  0540  0870               	movf	?__Umul8_16,w
  1651  0541  00C2               	movwf	___flmul@temp
  1652  0542                     l1706:
  1653  0542  0842               	movf	___flmul@temp,w
  1654  0543  00B2               	movwf	??___flmul
  1655  0544  01B3               	clrf	??___flmul+1
  1656  0545  01B4               	clrf	??___flmul+2
  1657  0546  01B5               	clrf	??___flmul+3
  1658  0547  0832               	movf	??___flmul,w
  1659  0548  07B8               	addwf	___flmul@grs,f
  1660  0549  0833               	movf	??___flmul+1,w
  1661  054A  1103               	clrz
  1662  054B  1803               	skipnc
  1663  054C  3E01               	addlw	1
  1664  054D  1903               	skipnz
  1665  054E  2D50               	goto	u2401
  1666  054F  07B9               	addwf	___flmul@grs+1,f
  1667  0550                     u2401:
  1668  0550  0834               	movf	??___flmul+2,w
  1669  0551  1103               	clrz
  1670  0552  1803               	skipnc
  1671  0553  3E01               	addlw	1
  1672  0554  1903               	skipnz
  1673  0555  2D57               	goto	u2402
  1674  0556  07BA               	addwf	___flmul@grs+2,f
  1675  0557                     u2402:
  1676  0557  0835               	movf	??___flmul+3,w
  1677  0558  1103               	clrz
  1678  0559  1803               	skipnc
  1679  055A  3E01               	addlw	1
  1680  055B  1903               	skipnz
  1681  055C  2D5E               	goto	u2403
  1682  055D  07BB               	addwf	___flmul@grs+3,f
  1683  055E                     u2403:
  1684  055E                     l1708:
  1685  055E  0843               	movf	___flmul@temp+1,w
  1686  055F  00B2               	movwf	??___flmul
  1687  0560  01B3               	clrf	??___flmul+1
  1688  0561  01B4               	clrf	??___flmul+2
  1689  0562  01B5               	clrf	??___flmul+3
  1690  0563  0832               	movf	??___flmul,w
  1691  0564  07BE               	addwf	___flmul@prod,f
  1692  0565  0833               	movf	??___flmul+1,w
  1693  0566  1103               	clrz
  1694  0567  1803               	skipnc
  1695  0568  3E01               	addlw	1
  1696  0569  1903               	skipnz
  1697  056A  2D6C               	goto	u2411
  1698  056B  07BF               	addwf	___flmul@prod+1,f
  1699  056C                     u2411:
  1700  056C  0834               	movf	??___flmul+2,w
  1701  056D  1103               	clrz
  1702  056E  1803               	skipnc
  1703  056F  3E01               	addlw	1
  1704  0570  1903               	skipnz
  1705  0571  2D73               	goto	u2412
  1706  0572  07C0               	addwf	___flmul@prod+2,f
  1707  0573                     u2412:
  1708  0573  0835               	movf	??___flmul+3,w
  1709  0574  1103               	clrz
  1710  0575  1803               	skipnc
  1711  0576  3E01               	addlw	1
  1712  0577  1903               	skipnz
  1713  0578  2D7A               	goto	u2413
  1714  0579  07C1               	addwf	___flmul@prod+3,f
  1715  057A                     u2413:
  1716  057A  082C               	movf	___flmul@b+2,w
  1717  057B  00B2               	movwf	??___flmul
  1718  057C  0832               	movf	??___flmul,w
  1719  057D  00F0               	movwf	__Umul8_16@multiplicand
  1720  057E  082E               	movf	___flmul@a,w
  1721  057F  120A  158A  233C  120A  118A  	fcall	__Umul8_16
  1722  0584  0871               	movf	?__Umul8_16+1,w
  1723  0585  1283               	bcf	3,5	;RP0=0, select bank0
  1724  0586  1303               	bcf	3,6	;RP1=0, select bank0
  1725  0587  00C3               	movwf	___flmul@temp+1
  1726  0588  0870               	movf	?__Umul8_16,w
  1727  0589  00C2               	movwf	___flmul@temp
  1728  058A                     l1710:
  1729  058A  0842               	movf	___flmul@temp,w
  1730  058B  00B2               	movwf	??___flmul
  1731  058C  01B3               	clrf	??___flmul+1
  1732  058D  01B4               	clrf	??___flmul+2
  1733  058E  01B5               	clrf	??___flmul+3
  1734  058F  0832               	movf	??___flmul,w
  1735  0590  07B8               	addwf	___flmul@grs,f
  1736  0591  0833               	movf	??___flmul+1,w
  1737  0592  1103               	clrz
  1738  0593  1803               	skipnc
  1739  0594  3E01               	addlw	1
  1740  0595  1903               	skipnz
  1741  0596  2D98               	goto	u2421
  1742  0597  07B9               	addwf	___flmul@grs+1,f
  1743  0598                     u2421:
  1744  0598  0834               	movf	??___flmul+2,w
  1745  0599  1103               	clrz
  1746  059A  1803               	skipnc
  1747  059B  3E01               	addlw	1
  1748  059C  1903               	skipnz
  1749  059D  2D9F               	goto	u2422
  1750  059E  07BA               	addwf	___flmul@grs+2,f
  1751  059F                     u2422:
  1752  059F  0835               	movf	??___flmul+3,w
  1753  05A0  1103               	clrz
  1754  05A1  1803               	skipnc
  1755  05A2  3E01               	addlw	1
  1756  05A3  1903               	skipnz
  1757  05A4  2DA6               	goto	u2423
  1758  05A5  07BB               	addwf	___flmul@grs+3,f
  1759  05A6                     u2423:
  1760  05A6                     l1712:
  1761  05A6  0843               	movf	___flmul@temp+1,w
  1762  05A7  00B2               	movwf	??___flmul
  1763  05A8  01B3               	clrf	??___flmul+1
  1764  05A9  01B4               	clrf	??___flmul+2
  1765  05AA  01B5               	clrf	??___flmul+3
  1766  05AB  0832               	movf	??___flmul,w
  1767  05AC  07BE               	addwf	___flmul@prod,f
  1768  05AD  0833               	movf	??___flmul+1,w
  1769  05AE  1103               	clrz
  1770  05AF  1803               	skipnc
  1771  05B0  3E01               	addlw	1
  1772  05B1  1903               	skipnz
  1773  05B2  2DB4               	goto	u2431
  1774  05B3  07BF               	addwf	___flmul@prod+1,f
  1775  05B4                     u2431:
  1776  05B4  0834               	movf	??___flmul+2,w
  1777  05B5  1103               	clrz
  1778  05B6  1803               	skipnc
  1779  05B7  3E01               	addlw	1
  1780  05B8  1903               	skipnz
  1781  05B9  2DBB               	goto	u2432
  1782  05BA  07C0               	addwf	___flmul@prod+2,f
  1783  05BB                     u2432:
  1784  05BB  0835               	movf	??___flmul+3,w
  1785  05BC  1103               	clrz
  1786  05BD  1803               	skipnc
  1787  05BE  3E01               	addlw	1
  1788  05BF  1903               	skipnz
  1789  05C0  2DC2               	goto	u2433
  1790  05C1  07C1               	addwf	___flmul@prod+3,f
  1791  05C2                     u2433:
  1792  05C2                     l1714:
  1793  05C2  3008               	movlw	8
  1794  05C3  00B2               	movwf	??___flmul
  1795  05C4                     u2445:
  1796  05C4  1003               	clrc
  1797  05C5  0DB8               	rlf	___flmul@grs,f
  1798  05C6  0DB9               	rlf	___flmul@grs+1,f
  1799  05C7  0DBA               	rlf	___flmul@grs+2,f
  1800  05C8  0DBB               	rlf	___flmul@grs+3,f
  1801  05C9  0BB2               	decfsz	??___flmul,f
  1802  05CA  2DC4               	goto	u2445
  1803  05CB                     l1716:
  1804  05CB  082B               	movf	___flmul@b+1,w
  1805  05CC  00B2               	movwf	??___flmul
  1806  05CD  0832               	movf	??___flmul,w
  1807  05CE  00F0               	movwf	__Umul8_16@multiplicand
  1808  05CF  082E               	movf	___flmul@a,w
  1809  05D0  120A  158A  233C  120A  118A  	fcall	__Umul8_16
  1810  05D5  0871               	movf	?__Umul8_16+1,w
  1811  05D6  1283               	bcf	3,5	;RP0=0, select bank0
  1812  05D7  1303               	bcf	3,6	;RP1=0, select bank0
  1813  05D8  00C3               	movwf	___flmul@temp+1
  1814  05D9  0870               	movf	?__Umul8_16,w
  1815  05DA  00C2               	movwf	___flmul@temp
  1816  05DB                     l1718:
  1817  05DB  0842               	movf	___flmul@temp,w
  1818  05DC  00B2               	movwf	??___flmul
  1819  05DD  0843               	movf	___flmul@temp+1,w
  1820  05DE  00B3               	movwf	??___flmul+1
  1821  05DF  01B4               	clrf	??___flmul+2
  1822  05E0  01B5               	clrf	??___flmul+3
  1823  05E1  0832               	movf	??___flmul,w
  1824  05E2  07B8               	addwf	___flmul@grs,f
  1825  05E3  0833               	movf	??___flmul+1,w
  1826  05E4  1103               	clrz
  1827  05E5  1803               	skipnc
  1828  05E6  3E01               	addlw	1
  1829  05E7  1903               	skipnz
  1830  05E8  2DEA               	goto	u2451
  1831  05E9  07B9               	addwf	___flmul@grs+1,f
  1832  05EA                     u2451:
  1833  05EA  0834               	movf	??___flmul+2,w
  1834  05EB  1103               	clrz
  1835  05EC  1803               	skipnc
  1836  05ED  3E01               	addlw	1
  1837  05EE  1903               	skipnz
  1838  05EF  2DF1               	goto	u2452
  1839  05F0  07BA               	addwf	___flmul@grs+2,f
  1840  05F1                     u2452:
  1841  05F1  0835               	movf	??___flmul+3,w
  1842  05F2  1103               	clrz
  1843  05F3  1803               	skipnc
  1844  05F4  3E01               	addlw	1
  1845  05F5  1903               	skipnz
  1846  05F6  2DF8               	goto	u2453
  1847  05F7  07BB               	addwf	___flmul@grs+3,f
  1848  05F8                     u2453:
  1849  05F8                     l1720:
  1850  05F8  082A               	movf	___flmul@b,w
  1851  05F9  00B2               	movwf	??___flmul
  1852  05FA  0832               	movf	??___flmul,w
  1853  05FB  00F0               	movwf	__Umul8_16@multiplicand
  1854  05FC  082F               	movf	___flmul@a+1,w
  1855  05FD  120A  158A  233C  120A  118A  	fcall	__Umul8_16
  1856  0602  0871               	movf	?__Umul8_16+1,w
  1857  0603  1283               	bcf	3,5	;RP0=0, select bank0
  1858  0604  1303               	bcf	3,6	;RP1=0, select bank0
  1859  0605  00C3               	movwf	___flmul@temp+1
  1860  0606  0870               	movf	?__Umul8_16,w
  1861  0607  00C2               	movwf	___flmul@temp
  1862  0608                     l1722:
  1863  0608  0842               	movf	___flmul@temp,w
  1864  0609  00B2               	movwf	??___flmul
  1865  060A  0843               	movf	___flmul@temp+1,w
  1866  060B  00B3               	movwf	??___flmul+1
  1867  060C  01B4               	clrf	??___flmul+2
  1868  060D  01B5               	clrf	??___flmul+3
  1869  060E  0832               	movf	??___flmul,w
  1870  060F  07B8               	addwf	___flmul@grs,f
  1871  0610  0833               	movf	??___flmul+1,w
  1872  0611  1103               	clrz
  1873  0612  1803               	skipnc
  1874  0613  3E01               	addlw	1
  1875  0614  1903               	skipnz
  1876  0615  2E17               	goto	u2461
  1877  0616  07B9               	addwf	___flmul@grs+1,f
  1878  0617                     u2461:
  1879  0617  0834               	movf	??___flmul+2,w
  1880  0618  1103               	clrz
  1881  0619  1803               	skipnc
  1882  061A  3E01               	addlw	1
  1883  061B  1903               	skipnz
  1884  061C  2E1E               	goto	u2462
  1885  061D  07BA               	addwf	___flmul@grs+2,f
  1886  061E                     u2462:
  1887  061E  0835               	movf	??___flmul+3,w
  1888  061F  1103               	clrz
  1889  0620  1803               	skipnc
  1890  0621  3E01               	addlw	1
  1891  0622  1903               	skipnz
  1892  0623  2E25               	goto	u2463
  1893  0624  07BB               	addwf	___flmul@grs+3,f
  1894  0625                     u2463:
  1895  0625                     l1724:
  1896  0625  3008               	movlw	8
  1897  0626  00B2               	movwf	??___flmul
  1898  0627                     u2475:
  1899  0627  1003               	clrc
  1900  0628  0DB8               	rlf	___flmul@grs,f
  1901  0629  0DB9               	rlf	___flmul@grs+1,f
  1902  062A  0DBA               	rlf	___flmul@grs+2,f
  1903  062B  0DBB               	rlf	___flmul@grs+3,f
  1904  062C  0BB2               	decfsz	??___flmul,f
  1905  062D  2E27               	goto	u2475
  1906  062E  082A               	movf	___flmul@b,w
  1907  062F  00B2               	movwf	??___flmul
  1908  0630  0832               	movf	??___flmul,w
  1909  0631  00F0               	movwf	__Umul8_16@multiplicand
  1910  0632  082E               	movf	___flmul@a,w
  1911  0633  120A  158A  233C  120A  118A  	fcall	__Umul8_16
  1912  0638  0871               	movf	?__Umul8_16+1,w
  1913  0639  1283               	bcf	3,5	;RP0=0, select bank0
  1914  063A  1303               	bcf	3,6	;RP1=0, select bank0
  1915  063B  00C3               	movwf	___flmul@temp+1
  1916  063C  0870               	movf	?__Umul8_16,w
  1917  063D  00C2               	movwf	___flmul@temp
  1918  063E                     l1726:
  1919  063E  0842               	movf	___flmul@temp,w
  1920  063F  00B2               	movwf	??___flmul
  1921  0640  0843               	movf	___flmul@temp+1,w
  1922  0641  00B3               	movwf	??___flmul+1
  1923  0642  01B4               	clrf	??___flmul+2
  1924  0643  01B5               	clrf	??___flmul+3
  1925  0644  0832               	movf	??___flmul,w
  1926  0645  07B8               	addwf	___flmul@grs,f
  1927  0646  0833               	movf	??___flmul+1,w
  1928  0647  1103               	clrz
  1929  0648  1803               	skipnc
  1930  0649  3E01               	addlw	1
  1931  064A  1903               	skipnz
  1932  064B  2E4D               	goto	u2481
  1933  064C  07B9               	addwf	___flmul@grs+1,f
  1934  064D                     u2481:
  1935  064D  0834               	movf	??___flmul+2,w
  1936  064E  1103               	clrz
  1937  064F  1803               	skipnc
  1938  0650  3E01               	addlw	1
  1939  0651  1903               	skipnz
  1940  0652  2E54               	goto	u2482
  1941  0653  07BA               	addwf	___flmul@grs+2,f
  1942  0654                     u2482:
  1943  0654  0835               	movf	??___flmul+3,w
  1944  0655  1103               	clrz
  1945  0656  1803               	skipnc
  1946  0657  3E01               	addlw	1
  1947  0658  1903               	skipnz
  1948  0659  2E5B               	goto	u2483
  1949  065A  07BB               	addwf	___flmul@grs+3,f
  1950  065B                     u2483:
  1951  065B                     l1728:
  1952  065B  082B               	movf	___flmul@b+1,w
  1953  065C  00B2               	movwf	??___flmul
  1954  065D  0832               	movf	??___flmul,w
  1955  065E  00F0               	movwf	__Umul8_16@multiplicand
  1956  065F  0830               	movf	___flmul@a+2,w
  1957  0660  120A  158A  233C  120A  118A  	fcall	__Umul8_16
  1958  0665  0871               	movf	?__Umul8_16+1,w
  1959  0666  1283               	bcf	3,5	;RP0=0, select bank0
  1960  0667  1303               	bcf	3,6	;RP1=0, select bank0
  1961  0668  00C3               	movwf	___flmul@temp+1
  1962  0669  0870               	movf	?__Umul8_16,w
  1963  066A  00C2               	movwf	___flmul@temp
  1964  066B  0842               	movf	___flmul@temp,w
  1965  066C  00B2               	movwf	??___flmul
  1966  066D  0843               	movf	___flmul@temp+1,w
  1967  066E  00B3               	movwf	??___flmul+1
  1968  066F  01B4               	clrf	??___flmul+2
  1969  0670  01B5               	clrf	??___flmul+3
  1970  0671  0832               	movf	??___flmul,w
  1971  0672  07BE               	addwf	___flmul@prod,f
  1972  0673  0833               	movf	??___flmul+1,w
  1973  0674  1103               	clrz
  1974  0675  1803               	skipnc
  1975  0676  3E01               	addlw	1
  1976  0677  1903               	skipnz
  1977  0678  2E7A               	goto	u2491
  1978  0679  07BF               	addwf	___flmul@prod+1,f
  1979  067A                     u2491:
  1980  067A  0834               	movf	??___flmul+2,w
  1981  067B  1103               	clrz
  1982  067C  1803               	skipnc
  1983  067D  3E01               	addlw	1
  1984  067E  1903               	skipnz
  1985  067F  2E81               	goto	u2492
  1986  0680  07C0               	addwf	___flmul@prod+2,f
  1987  0681                     u2492:
  1988  0681  0835               	movf	??___flmul+3,w
  1989  0682  1103               	clrz
  1990  0683  1803               	skipnc
  1991  0684  3E01               	addlw	1
  1992  0685  1903               	skipnz
  1993  0686  2E88               	goto	u2493
  1994  0687  07C1               	addwf	___flmul@prod+3,f
  1995  0688                     u2493:
  1996  0688                     l1730:
  1997  0688  082C               	movf	___flmul@b+2,w
  1998  0689  00B2               	movwf	??___flmul
  1999  068A  0832               	movf	??___flmul,w
  2000  068B  00F0               	movwf	__Umul8_16@multiplicand
  2001  068C  082F               	movf	___flmul@a+1,w
  2002  068D  120A  158A  233C  120A  118A  	fcall	__Umul8_16
  2003  0692  0871               	movf	?__Umul8_16+1,w
  2004  0693  1283               	bcf	3,5	;RP0=0, select bank0
  2005  0694  1303               	bcf	3,6	;RP1=0, select bank0
  2006  0695  00C3               	movwf	___flmul@temp+1
  2007  0696  0870               	movf	?__Umul8_16,w
  2008  0697  00C2               	movwf	___flmul@temp
  2009  0698                     l1732:
  2010  0698  0842               	movf	___flmul@temp,w
  2011  0699  00B2               	movwf	??___flmul
  2012  069A  0843               	movf	___flmul@temp+1,w
  2013  069B  00B3               	movwf	??___flmul+1
  2014  069C  01B4               	clrf	??___flmul+2
  2015  069D  01B5               	clrf	??___flmul+3
  2016  069E  0832               	movf	??___flmul,w
  2017  069F  07BE               	addwf	___flmul@prod,f
  2018  06A0  0833               	movf	??___flmul+1,w
  2019  06A1  1103               	clrz
  2020  06A2  1803               	skipnc
  2021  06A3  3E01               	addlw	1
  2022  06A4  1903               	skipnz
  2023  06A5  2EA7               	goto	u2501
  2024  06A6  07BF               	addwf	___flmul@prod+1,f
  2025  06A7                     u2501:
  2026  06A7  0834               	movf	??___flmul+2,w
  2027  06A8  1103               	clrz
  2028  06A9  1803               	skipnc
  2029  06AA  3E01               	addlw	1
  2030  06AB  1903               	skipnz
  2031  06AC  2EAE               	goto	u2502
  2032  06AD  07C0               	addwf	___flmul@prod+2,f
  2033  06AE                     u2502:
  2034  06AE  0835               	movf	??___flmul+3,w
  2035  06AF  1103               	clrz
  2036  06B0  1803               	skipnc
  2037  06B1  3E01               	addlw	1
  2038  06B2  1903               	skipnz
  2039  06B3  2EB5               	goto	u2503
  2040  06B4  07C1               	addwf	___flmul@prod+3,f
  2041  06B5                     u2503:
  2042  06B5  082C               	movf	___flmul@b+2,w
  2043  06B6  00B2               	movwf	??___flmul
  2044  06B7  0832               	movf	??___flmul,w
  2045  06B8  00F0               	movwf	__Umul8_16@multiplicand
  2046  06B9  0830               	movf	___flmul@a+2,w
  2047  06BA  120A  158A  233C  120A  118A  	fcall	__Umul8_16
  2048  06BF  0871               	movf	?__Umul8_16+1,w
  2049  06C0  1283               	bcf	3,5	;RP0=0, select bank0
  2050  06C1  1303               	bcf	3,6	;RP1=0, select bank0
  2051  06C2  00C3               	movwf	___flmul@temp+1
  2052  06C3  0870               	movf	?__Umul8_16,w
  2053  06C4  00C2               	movwf	___flmul@temp
  2054  06C5                     l1734:
  2055  06C5  0842               	movf	___flmul@temp,w
  2056  06C6  00B2               	movwf	??___flmul
  2057  06C7  0843               	movf	___flmul@temp+1,w
  2058  06C8  00B3               	movwf	??___flmul+1
  2059  06C9  01B4               	clrf	??___flmul+2
  2060  06CA  01B5               	clrf	??___flmul+3
  2061  06CB  3008               	movlw	8
  2062  06CC                     u2515:
  2063  06CC  1003               	clrc
  2064  06CD  0DB2               	rlf	??___flmul,f
  2065  06CE  0DB3               	rlf	??___flmul+1,f
  2066  06CF  0DB4               	rlf	??___flmul+2,f
  2067  06D0  0DB5               	rlf	??___flmul+3,f
  2068  06D1                     u2510:
  2069  06D1  3EFF               	addlw	-1
  2070  06D2  1D03               	skipz
  2071  06D3  2ECC               	goto	u2515
  2072  06D4  0832               	movf	??___flmul,w
  2073  06D5  07BE               	addwf	___flmul@prod,f
  2074  06D6  0833               	movf	??___flmul+1,w
  2075  06D7  1103               	clrz
  2076  06D8  1803               	skipnc
  2077  06D9  3E01               	addlw	1
  2078  06DA  1903               	skipnz
  2079  06DB  2EDD               	goto	u2521
  2080  06DC  07BF               	addwf	___flmul@prod+1,f
  2081  06DD                     u2521:
  2082  06DD  0834               	movf	??___flmul+2,w
  2083  06DE  1103               	clrz
  2084  06DF  1803               	skipnc
  2085  06E0  3E01               	addlw	1
  2086  06E1  1903               	skipnz
  2087  06E2  2EE4               	goto	u2522
  2088  06E3  07C0               	addwf	___flmul@prod+2,f
  2089  06E4                     u2522:
  2090  06E4  0835               	movf	??___flmul+3,w
  2091  06E5  1103               	clrz
  2092  06E6  1803               	skipnc
  2093  06E7  3E01               	addlw	1
  2094  06E8  1903               	skipnz
  2095  06E9  2EEB               	goto	u2523
  2096  06EA  07C1               	addwf	___flmul@prod+3,f
  2097  06EB                     u2523:
  2098  06EB                     l1736:
  2099  06EB  0838               	movf	___flmul@grs,w
  2100  06EC  00B2               	movwf	??___flmul
  2101  06ED  0839               	movf	___flmul@grs+1,w
  2102  06EE  00B3               	movwf	??___flmul+1
  2103  06EF  083A               	movf	___flmul@grs+2,w
  2104  06F0  00B4               	movwf	??___flmul+2
  2105  06F1  083B               	movf	___flmul@grs+3,w
  2106  06F2  00B5               	movwf	??___flmul+3
  2107  06F3  3018               	movlw	24
  2108  06F4                     u2535:
  2109  06F4  1003               	clrc
  2110  06F5  0CB5               	rrf	??___flmul+3,f
  2111  06F6  0CB4               	rrf	??___flmul+2,f
  2112  06F7  0CB3               	rrf	??___flmul+1,f
  2113  06F8  0CB2               	rrf	??___flmul,f
  2114  06F9                     u2530:
  2115  06F9  3EFF               	addlw	-1
  2116  06FA  1D03               	skipz
  2117  06FB  2EF4               	goto	u2535
  2118  06FC  0832               	movf	??___flmul,w
  2119  06FD  07BE               	addwf	___flmul@prod,f
  2120  06FE  0833               	movf	??___flmul+1,w
  2121  06FF  1103               	clrz
  2122  0700  1803               	skipnc
  2123  0701  3E01               	addlw	1
  2124  0702  1903               	skipnz
  2125  0703  2F05               	goto	u2541
  2126  0704  07BF               	addwf	___flmul@prod+1,f
  2127  0705                     u2541:
  2128  0705  0834               	movf	??___flmul+2,w
  2129  0706  1103               	clrz
  2130  0707  1803               	skipnc
  2131  0708  3E01               	addlw	1
  2132  0709  1903               	skipnz
  2133  070A  2F0C               	goto	u2542
  2134  070B  07C0               	addwf	___flmul@prod+2,f
  2135  070C                     u2542:
  2136  070C  0835               	movf	??___flmul+3,w
  2137  070D  1103               	clrz
  2138  070E  1803               	skipnc
  2139  070F  3E01               	addlw	1
  2140  0710  1903               	skipnz
  2141  0711  2F13               	goto	u2543
  2142  0712  07C1               	addwf	___flmul@prod+3,f
  2143  0713                     u2543:
  2144  0713                     l1738:
  2145  0713  3008               	movlw	8
  2146  0714  00B2               	movwf	??___flmul
  2147  0715                     u2555:
  2148  0715  1003               	clrc
  2149  0716  0DB8               	rlf	___flmul@grs,f
  2150  0717  0DB9               	rlf	___flmul@grs+1,f
  2151  0718  0DBA               	rlf	___flmul@grs+2,f
  2152  0719  0DBB               	rlf	___flmul@grs+3,f
  2153  071A  0BB2               	decfsz	??___flmul,f
  2154  071B  2F15               	goto	u2555
  2155  071C                     l1740:
  2156  071C  083D               	movf	___flmul@bexp,w
  2157  071D  073C               	addwf	___flmul@aexp,w
  2158  071E  00B2               	movwf	??___flmul
  2159  071F  01B3               	clrf	??___flmul+1
  2160  0720  0DB3               	rlf	??___flmul+1,f
  2161  0721  0832               	movf	??___flmul,w
  2162  0722  3E82               	addlw	130
  2163  0723  00C2               	movwf	___flmul@temp
  2164  0724  0833               	movf	??___flmul+1,w
  2165  0725  1803               	skipnc
  2166  0726  3E01               	addlw	1
  2167  0727  3EFF               	addlw	255
  2168  0728  00C3               	movwf	___flmul@temp+1
  2169  0729  2F47               	goto	l1752
  2170  072A                     l1742:
  2171  072A  3001               	movlw	1
  2172  072B  00B2               	movwf	??___flmul
  2173  072C                     u2565:
  2174  072C  1003               	clrc
  2175  072D  0DBE               	rlf	___flmul@prod,f
  2176  072E  0DBF               	rlf	___flmul@prod+1,f
  2177  072F  0DC0               	rlf	___flmul@prod+2,f
  2178  0730  0DC1               	rlf	___flmul@prod+3,f
  2179  0731  0BB2               	decfsz	??___flmul,f
  2180  0732  2F2C               	goto	u2565
  2181  0733                     l1744:
  2182  0733  1FBB               	btfss	___flmul@grs+3,7
  2183  0734  2F36               	goto	u2571
  2184  0735  2F37               	goto	u2570
  2185  0736                     u2571:
  2186  0736  2F38               	goto	l1748
  2187  0737                     u2570:
  2188  0737                     l1746:
  2189  0737  143E               	bsf	___flmul@prod,0
  2190  0738                     l1748:
  2191  0738  3001               	movlw	1
  2192  0739  00B2               	movwf	??___flmul
  2193  073A                     u2585:
  2194  073A  1003               	clrc
  2195  073B  0DB8               	rlf	___flmul@grs,f
  2196  073C  0DB9               	rlf	___flmul@grs+1,f
  2197  073D  0DBA               	rlf	___flmul@grs+2,f
  2198  073E  0DBB               	rlf	___flmul@grs+3,f
  2199  073F  0BB2               	decfsz	??___flmul,f
  2200  0740  2F3A               	goto	u2585
  2201  0741                     l1750:
  2202  0741  30FF               	movlw	255
  2203  0742  07C2               	addwf	___flmul@temp,f
  2204  0743  1803               	skipnc
  2205  0744  0AC3               	incf	___flmul@temp+1,f
  2206  0745  30FF               	movlw	255
  2207  0746  07C3               	addwf	___flmul@temp+1,f
  2208  0747                     l1752:
  2209  0747  1FC0               	btfss	___flmul@prod+2,7
  2210  0748  2F4A               	goto	u2591
  2211  0749  2F4B               	goto	u2590
  2212  074A                     u2591:
  2213  074A  2F2A               	goto	l1742
  2214  074B                     u2590:
  2215  074B                     l1754:
  2216  074B  01BC               	clrf	___flmul@aexp
  2217  074C                     l1756:
  2218  074C  1FBB               	btfss	___flmul@grs+3,7
  2219  074D  2F4F               	goto	u2601
  2220  074E  2F50               	goto	u2600
  2221  074F                     u2601:
  2222  074F  2F6C               	goto	l1764
  2223  0750                     u2600:
  2224  0750                     l1758:
  2225  0750  30FF               	movlw	255
  2226  0751  0538               	andwf	___flmul@grs,w
  2227  0752  00B2               	movwf	??___flmul
  2228  0753  30FF               	movlw	255
  2229  0754  0539               	andwf	___flmul@grs+1,w
  2230  0755  00B3               	movwf	??___flmul+1
  2231  0756  30FF               	movlw	255
  2232  0757  053A               	andwf	___flmul@grs+2,w
  2233  0758  00B4               	movwf	??___flmul+2
  2234  0759  307F               	movlw	127
  2235  075A  053B               	andwf	___flmul@grs+3,w
  2236  075B  00B5               	movwf	??___flmul+3
  2237  075C  0835               	movf	??___flmul+3,w
  2238  075D  0434               	iorwf	??___flmul+2,w
  2239  075E  0433               	iorwf	??___flmul+1,w
  2240  075F  0432               	iorwf	??___flmul,w
  2241  0760  1903               	skipnz
  2242  0761  2F63               	goto	u2611
  2243  0762  2F64               	goto	u2610
  2244  0763                     u2611:
  2245  0763  2F67               	goto	l543
  2246  0764                     u2610:
  2247  0764                     l1760:
  2248  0764  01BC               	clrf	___flmul@aexp
  2249  0765  0ABC               	incf	___flmul@aexp,f
  2250  0766  2F6C               	goto	l1764
  2251  0767                     l543:
  2252  0767  1C3E               	btfss	___flmul@prod,0
  2253  0768  2F6A               	goto	u2621
  2254  0769  2F6B               	goto	u2620
  2255  076A                     u2621:
  2256  076A  2F6C               	goto	l1764
  2257  076B                     u2620:
  2258  076B  2F64               	goto	l1760
  2259  076C                     l1764:
  2260  076C  083C               	movf	___flmul@aexp,w
  2261  076D  1903               	btfsc	3,2
  2262  076E  2F70               	goto	u2631
  2263  076F  2F71               	goto	u2630
  2264  0770                     u2631:
  2265  0770  2FA2               	goto	l1774
  2266  0771                     u2630:
  2267  0771                     l1766:
  2268  0771  3001               	movlw	1
  2269  0772  07BE               	addwf	___flmul@prod,f
  2270  0773  3000               	movlw	0
  2271  0774  1803               	skipnc
  2272  0775  3001               	movlw	1
  2273  0776  07BF               	addwf	___flmul@prod+1,f
  2274  0777  3000               	movlw	0
  2275  0778  1803               	skipnc
  2276  0779  3001               	movlw	1
  2277  077A  07C0               	addwf	___flmul@prod+2,f
  2278  077B  3000               	movlw	0
  2279  077C  1803               	skipnc
  2280  077D  3001               	movlw	1
  2281  077E  07C1               	addwf	___flmul@prod+3,f
  2282  077F                     l1768:
  2283  077F  1C41               	btfss	___flmul@prod+3,0
  2284  0780  2F82               	goto	u2641
  2285  0781  2F83               	goto	u2640
  2286  0782                     u2641:
  2287  0782  2FA2               	goto	l1774
  2288  0783                     u2640:
  2289  0783                     l1770:
  2290  0783  083E               	movf	___flmul@prod,w
  2291  0784  00B2               	movwf	??___flmul
  2292  0785  083F               	movf	___flmul@prod+1,w
  2293  0786  00B3               	movwf	??___flmul+1
  2294  0787  0840               	movf	___flmul@prod+2,w
  2295  0788  00B4               	movwf	??___flmul+2
  2296  0789  0841               	movf	___flmul@prod+3,w
  2297  078A  00B5               	movwf	??___flmul+3
  2298  078B  3001               	movlw	1
  2299  078C  00B6               	movwf	??___flmul+4
  2300  078D                     u2655:
  2301  078D  0D35               	rlf	??___flmul+3,w
  2302  078E  0CB5               	rrf	??___flmul+3,f
  2303  078F  0CB4               	rrf	??___flmul+2,f
  2304  0790  0CB3               	rrf	??___flmul+1,f
  2305  0791  0CB2               	rrf	??___flmul,f
  2306  0792                     u2650:
  2307  0792  0BB6               	decfsz	??___flmul+4,f
  2308  0793  2F8D               	goto	u2655
  2309  0794  0835               	movf	??___flmul+3,w
  2310  0795  00C1               	movwf	___flmul@prod+3
  2311  0796  0834               	movf	??___flmul+2,w
  2312  0797  00C0               	movwf	___flmul@prod+2
  2313  0798  0833               	movf	??___flmul+1,w
  2314  0799  00BF               	movwf	___flmul@prod+1
  2315  079A  0832               	movf	??___flmul,w
  2316  079B  00BE               	movwf	___flmul@prod
  2317  079C                     l1772:
  2318  079C  3001               	movlw	1
  2319  079D  07C2               	addwf	___flmul@temp,f
  2320  079E  1803               	skipnc
  2321  079F  0AC3               	incf	___flmul@temp+1,f
  2322  07A0  3000               	movlw	0
  2323  07A1  07C3               	addwf	___flmul@temp+1,f
  2324  07A2                     l1774:
  2325  07A2  0843               	movf	___flmul@temp+1,w
  2326  07A3  3A80               	xorlw	128
  2327  07A4  00FF               	movwf	btemp+1
  2328  07A5  3080               	movlw	128
  2329  07A6  027F               	subwf	btemp+1,w
  2330  07A7  1D03               	skipz
  2331  07A8  2FAB               	goto	u2665
  2332  07A9  30FF               	movlw	255
  2333  07AA  0242               	subwf	___flmul@temp,w
  2334  07AB                     u2665:
  2335  07AB  1C03               	skipc
  2336  07AC  2FAE               	goto	u2661
  2337  07AD  2FAF               	goto	u2660
  2338  07AE                     u2661:
  2339  07AE  2FBA               	goto	l1778
  2340  07AF                     u2660:
  2341  07AF                     l1776:
  2342  07AF  307F               	movlw	127
  2343  07B0  1283               	bcf	3,5	;RP0=0, select bank0
  2344  07B1  1303               	bcf	3,6	;RP1=0, select bank0
  2345  07B2  00C1               	movwf	___flmul@prod+3
  2346  07B3  3080               	movlw	128
  2347  07B4  00C0               	movwf	___flmul@prod+2
  2348  07B5  3000               	movlw	0
  2349  07B6  00BF               	movwf	___flmul@prod+1
  2350  07B7  3000               	movlw	0
  2351  07B8  00BE               	movwf	___flmul@prod
  2352  07B9  2FEF               	goto	l549
  2353  07BA                     l1778:
  2354  07BA  1283               	bcf	3,5	;RP0=0, select bank0
  2355  07BB  1303               	bcf	3,6	;RP1=0, select bank0
  2356  07BC  0843               	movf	___flmul@temp+1,w
  2357  07BD  3A80               	xorlw	128
  2358  07BE  00FF               	movwf	btemp+1
  2359  07BF  3080               	movlw	128
  2360  07C0  027F               	subwf	btemp+1,w
  2361  07C1  1D03               	skipz
  2362  07C2  2FC5               	goto	u2675
  2363  07C3  3001               	movlw	1
  2364  07C4  0242               	subwf	___flmul@temp,w
  2365  07C5                     u2675:
  2366  07C5  1803               	skipnc
  2367  07C6  2FC8               	goto	u2671
  2368  07C7  2FC9               	goto	u2670
  2369  07C8                     u2671:
  2370  07C8  2FD5               	goto	l1784
  2371  07C9                     u2670:
  2372  07C9                     l1780:
  2373  07C9  3000               	movlw	0
  2374  07CA  1283               	bcf	3,5	;RP0=0, select bank0
  2375  07CB  1303               	bcf	3,6	;RP1=0, select bank0
  2376  07CC  00C1               	movwf	___flmul@prod+3
  2377  07CD  3000               	movlw	0
  2378  07CE  00C0               	movwf	___flmul@prod+2
  2379  07CF  3000               	movlw	0
  2380  07D0  00BF               	movwf	___flmul@prod+1
  2381  07D1  3000               	movlw	0
  2382  07D2  00BE               	movwf	___flmul@prod
  2383  07D3                     l1782:
  2384  07D3  01B7               	clrf	___flmul@sign
  2385  07D4  2FEF               	goto	l549
  2386  07D5                     l1784:
  2387  07D5  1283               	bcf	3,5	;RP0=0, select bank0
  2388  07D6  1303               	bcf	3,6	;RP1=0, select bank0
  2389  07D7  0842               	movf	___flmul@temp,w
  2390  07D8  00B2               	movwf	??___flmul
  2391  07D9  0832               	movf	??___flmul,w
  2392  07DA  00BD               	movwf	___flmul@bexp
  2393  07DB  30FF               	movlw	255
  2394  07DC  05BE               	andwf	___flmul@prod,f
  2395  07DD  30FF               	movlw	255
  2396  07DE  05BF               	andwf	___flmul@prod+1,f
  2397  07DF  307F               	movlw	127
  2398  07E0  05C0               	andwf	___flmul@prod+2,f
  2399  07E1  3000               	movlw	0
  2400  07E2  05C1               	andwf	___flmul@prod+3,f
  2401  07E3                     l1786:
  2402  07E3  1C3D               	btfss	___flmul@bexp,0
  2403  07E4  2FE6               	goto	u2681
  2404  07E5  2FE7               	goto	u2680
  2405  07E6                     u2681:
  2406  07E6  2FE8               	goto	l1790
  2407  07E7                     u2680:
  2408  07E7                     l1788:
  2409  07E7  17C0               	bsf	___flmul@prod+2,7
  2410  07E8                     l1790:
  2411  07E8  083D               	movf	___flmul@bexp,w
  2412  07E9  00B2               	movwf	??___flmul
  2413  07EA  1003               	clrc
  2414  07EB  0C32               	rrf	??___flmul,w
  2415  07EC  00B3               	movwf	??___flmul+1
  2416  07ED  0833               	movf	??___flmul+1,w
  2417  07EE  00C1               	movwf	___flmul@prod+3
  2418  07EF                     l549:
  2419  07EF  0837               	movf	___flmul@sign,w
  2420  07F0  00B2               	movwf	??___flmul
  2421  07F1  0832               	movf	??___flmul,w
  2422  07F2  04C1               	iorwf	___flmul@prod+3,f
  2423  07F3                     l1792:
  2424  07F3  0841               	movf	___flmul@prod+3,w
  2425  07F4  00AD               	movwf	?___flmul+3
  2426  07F5  0840               	movf	___flmul@prod+2,w
  2427  07F6  00AC               	movwf	?___flmul+2
  2428  07F7  083F               	movf	___flmul@prod+1,w
  2429  07F8  00AB               	movwf	?___flmul+1
  2430  07F9  083E               	movf	___flmul@prod,w
  2431  07FA  00AA               	movwf	?___flmul
  2432  07FB                     l537:
  2433  07FB  0008               	return
  2434  07FC                     __end_of___flmul:
  2435                           
  2436                           	psect	text5
  2437  0B3C                     __ptext5:	
  2438 ;; *************** function __Umul8_16 *****************
  2439 ;; Defined at:
  2440 ;;		line 4 in file "C:\Program Files\Microchip\xc8\v2.30\pic\sources\c90\common\Umul8_16.c"
  2441 ;; Parameters:    Size  Location     Type
  2442 ;;  multiplier      1    wreg     unsigned char 
  2443 ;;  multiplicand    1    0[COMMON] unsigned char 
  2444 ;; Auto vars:     Size  Location     Type
  2445 ;;  multiplier      1    8[COMMON] unsigned char 
  2446 ;;  word_mpld       2    6[COMMON] unsigned int 
  2447 ;;  product         2    4[COMMON] unsigned int 
  2448 ;; Return value:  Size  Location     Type
  2449 ;;                  2    0[COMMON] unsigned int 
  2450 ;; Registers used:
  2451 ;;		wreg, status,2, status,0
  2452 ;; Tracked objects:
  2453 ;;		On entry : 0/0
  2454 ;;		On exit  : 0/0
  2455 ;;		Unchanged: 0/0
  2456 ;; Data sizes:     COMMON   BANK0   BANK1   BANK3   BANK2
  2457 ;;      Params:         2       0       0       0       0
  2458 ;;      Locals:         5       0       0       0       0
  2459 ;;      Temps:          2       0       0       0       0
  2460 ;;      Totals:         9       0       0       0       0
  2461 ;;Total ram usage:        9 bytes
  2462 ;; Hardware stack levels used:    1
  2463 ;; This function calls:
  2464 ;;		Nothing
  2465 ;; This function is called by:
  2466 ;;		___flmul
  2467 ;; This function uses a non-reentrant model
  2468 ;;
  2469                           
  2470                           
  2471                           ;psect for function __Umul8_16
  2472  0B3C                     __Umul8_16:
  2473                           
  2474                           ;incstack = 0
  2475                           ; Regs used in __Umul8_16: [wreg+status,2+status,0]
  2476                           ;__Umul8_16@multiplier stored from wreg
  2477  0B3C  00F8               	movwf	__Umul8_16@multiplier
  2478  0B3D                     l1270:
  2479  0B3D  01F4               	clrf	__Umul8_16@product
  2480  0B3E  01F5               	clrf	__Umul8_16@product+1
  2481  0B3F                     l1272:
  2482  0B3F  0870               	movf	__Umul8_16@multiplicand,w
  2483  0B40  00F2               	movwf	??__Umul8_16
  2484  0B41  01F3               	clrf	??__Umul8_16+1
  2485  0B42  0872               	movf	??__Umul8_16,w
  2486  0B43  00F6               	movwf	__Umul8_16@word_mpld
  2487  0B44  0873               	movf	??__Umul8_16+1,w
  2488  0B45  00F7               	movwf	__Umul8_16@word_mpld+1
  2489  0B46                     l1274:
  2490  0B46  1C78               	btfss	__Umul8_16@multiplier,0
  2491  0B47  2B49               	goto	u1441
  2492  0B48  2B4A               	goto	u1440
  2493  0B49                     u1441:
  2494  0B49  2B50               	goto	l556
  2495  0B4A                     u1440:
  2496  0B4A                     l1276:
  2497  0B4A  0876               	movf	__Umul8_16@word_mpld,w
  2498  0B4B  07F4               	addwf	__Umul8_16@product,f
  2499  0B4C  1803               	skipnc
  2500  0B4D  0AF5               	incf	__Umul8_16@product+1,f
  2501  0B4E  0877               	movf	__Umul8_16@word_mpld+1,w
  2502  0B4F  07F5               	addwf	__Umul8_16@product+1,f
  2503  0B50                     l556:
  2504  0B50  3001               	movlw	1
  2505  0B51                     u1455:
  2506  0B51  1003               	clrc
  2507  0B52  0DF6               	rlf	__Umul8_16@word_mpld,f
  2508  0B53  0DF7               	rlf	__Umul8_16@word_mpld+1,f
  2509  0B54  3EFF               	addlw	-1
  2510  0B55  1D03               	skipz
  2511  0B56  2B51               	goto	u1455
  2512  0B57  1003               	clrc
  2513  0B58  0CF8               	rrf	__Umul8_16@multiplier,f
  2514  0B59                     l1278:
  2515  0B59  0878               	movf	__Umul8_16@multiplier,w
  2516  0B5A  1D03               	btfss	3,2
  2517  0B5B  2B5D               	goto	u1461
  2518  0B5C  2B5E               	goto	u1460
  2519  0B5D                     u1461:
  2520  0B5D  2B46               	goto	l1274
  2521  0B5E                     u1460:
  2522  0B5E                     l1280:
  2523  0B5E  0875               	movf	__Umul8_16@product+1,w
  2524  0B5F  00F1               	movwf	?__Umul8_16+1
  2525  0B60  0874               	movf	__Umul8_16@product,w
  2526  0B61  00F0               	movwf	?__Umul8_16
  2527  0B62                     l558:
  2528  0B62  0008               	return
  2529  0B63                     __end_of__Umul8_16:
  2530                           
  2531                           	psect	text6
  2532  0E23                     __ptext6:	
  2533 ;; *************** function ___fldiv *****************
  2534 ;; Defined at:
  2535 ;;		line 8 in file "C:\Program Files\Microchip\xc8\v2.30\pic\sources\c90\common\sprcdiv.c"
  2536 ;; Parameters:    Size  Location     Type
  2537 ;;  a               4   36[BANK0 ] unsigned int 
  2538 ;;  b               4   40[BANK0 ] unsigned int 
  2539 ;; Auto vars:     Size  Location     Type
  2540 ;;  grs             4   56[BANK0 ] unsigned long 
  2541 ;;  rem             4   49[BANK0 ] unsigned long 
  2542 ;;  new_exp         2   54[BANK0 ] int 
  2543 ;;  aexp            1   61[BANK0 ] unsigned char 
  2544 ;;  bexp            1   60[BANK0 ] unsigned char 
  2545 ;;  sign            1   53[BANK0 ] unsigned char 
  2546 ;; Return value:  Size  Location     Type
  2547 ;;                  4   36[BANK0 ] unsigned char 
  2548 ;; Registers used:
  2549 ;;		wreg, status,2, status,0, btemp+1
  2550 ;; Tracked objects:
  2551 ;;		On entry : 0/0
  2552 ;;		On exit  : 0/0
  2553 ;;		Unchanged: 0/0
  2554 ;; Data sizes:     COMMON   BANK0   BANK1   BANK3   BANK2
  2555 ;;      Params:         0       8       0       0       0
  2556 ;;      Locals:         0      13       0       0       0
  2557 ;;      Temps:          0       5       0       0       0
  2558 ;;      Totals:         0      26       0       0       0
  2559 ;;Total ram usage:       26 bytes
  2560 ;; Hardware stack levels used:    1
  2561 ;; This function calls:
  2562 ;;		Nothing
  2563 ;; This function is called by:
  2564 ;;		_startPWM1
  2565 ;;		_startPWM2
  2566 ;; This function uses a non-reentrant model
  2567 ;;
  2568                           
  2569                           
  2570                           ;psect for function ___fldiv
  2571  0E23                     ___fldiv:
  2572  0E23                     l1514:	
  2573                           ;incstack = 0
  2574                           ; Regs used in ___fldiv: [wreg+status,2+status,0+btemp+1]
  2575                           
  2576  0E23  1283               	bcf	3,5	;RP0=0, select bank0
  2577  0E24  1303               	bcf	3,6	;RP1=0, select bank0
  2578  0E25  084B               	movf	___fldiv@b+3,w
  2579  0E26  3980               	andlw	128
  2580  0E27  00CC               	movwf	??___fldiv
  2581  0E28  084C               	movf	??___fldiv,w
  2582  0E29  00D5               	movwf	___fldiv@sign
  2583  0E2A                     l1516:
  2584  0E2A  084B               	movf	___fldiv@b+3,w
  2585  0E2B  00CC               	movwf	??___fldiv
  2586  0E2C  074C               	addwf	??___fldiv,w
  2587  0E2D  00CD               	movwf	??___fldiv+1
  2588  0E2E  084D               	movf	??___fldiv+1,w
  2589  0E2F  00DC               	movwf	___fldiv@bexp
  2590  0E30                     l1518:
  2591  0E30  1FCA               	btfss	___fldiv@b+2,7
  2592  0E31  2E33               	goto	u2031
  2593  0E32  2E34               	goto	u2030
  2594  0E33                     u2031:
  2595  0E33  2E35               	goto	l1522
  2596  0E34                     u2030:
  2597  0E34                     l1520:
  2598  0E34  145C               	bsf	___fldiv@bexp,0
  2599  0E35                     l1522:
  2600  0E35  085C               	movf	___fldiv@bexp,w
  2601  0E36  1903               	btfsc	3,2
  2602  0E37  2E39               	goto	u2041
  2603  0E38  2E3A               	goto	u2040
  2604  0E39                     u2041:
  2605  0E39  2E4A               	goto	l1532
  2606  0E3A                     u2040:
  2607  0E3A                     l1524:
  2608  0E3A  0A5C               	incf	___fldiv@bexp,w
  2609  0E3B  1D03               	btfss	3,2
  2610  0E3C  2E3E               	goto	u2051
  2611  0E3D  2E3F               	goto	u2050
  2612  0E3E                     u2051:
  2613  0E3E  2E47               	goto	l1528
  2614  0E3F                     u2050:
  2615  0E3F                     l1526:
  2616  0E3F  3000               	movlw	0
  2617  0E40  00CB               	movwf	___fldiv@b+3
  2618  0E41  3000               	movlw	0
  2619  0E42  00CA               	movwf	___fldiv@b+2
  2620  0E43  3000               	movlw	0
  2621  0E44  00C9               	movwf	___fldiv@b+1
  2622  0E45  3000               	movlw	0
  2623  0E46  00C8               	movwf	___fldiv@b
  2624  0E47                     l1528:
  2625  0E47  17CA               	bsf	___fldiv@b+2,7
  2626  0E48                     l1530:
  2627  0E48  01CB               	clrf	___fldiv@b+3
  2628  0E49  2E52               	goto	l1534
  2629  0E4A                     l1532:
  2630  0E4A  3000               	movlw	0
  2631  0E4B  00CB               	movwf	___fldiv@b+3
  2632  0E4C  3000               	movlw	0
  2633  0E4D  00CA               	movwf	___fldiv@b+2
  2634  0E4E  3000               	movlw	0
  2635  0E4F  00C9               	movwf	___fldiv@b+1
  2636  0E50  3000               	movlw	0
  2637  0E51  00C8               	movwf	___fldiv@b
  2638  0E52                     l1534:
  2639  0E52  0847               	movf	___fldiv@a+3,w
  2640  0E53  3980               	andlw	128
  2641  0E54  00CC               	movwf	??___fldiv
  2642  0E55  084C               	movf	??___fldiv,w
  2643  0E56  06D5               	xorwf	___fldiv@sign,f
  2644  0E57                     l1536:
  2645  0E57  0847               	movf	___fldiv@a+3,w
  2646  0E58  00CC               	movwf	??___fldiv
  2647  0E59  074C               	addwf	??___fldiv,w
  2648  0E5A  00CD               	movwf	??___fldiv+1
  2649  0E5B  084D               	movf	??___fldiv+1,w
  2650  0E5C  00DD               	movwf	___fldiv@aexp
  2651  0E5D                     l1538:
  2652  0E5D  1FC6               	btfss	___fldiv@a+2,7
  2653  0E5E  2E60               	goto	u2061
  2654  0E5F  2E61               	goto	u2060
  2655  0E60                     u2061:
  2656  0E60  2E62               	goto	l1542
  2657  0E61                     u2060:
  2658  0E61                     l1540:
  2659  0E61  145D               	bsf	___fldiv@aexp,0
  2660  0E62                     l1542:
  2661  0E62  085D               	movf	___fldiv@aexp,w
  2662  0E63  1903               	btfsc	3,2
  2663  0E64  2E66               	goto	u2071
  2664  0E65  2E67               	goto	u2070
  2665  0E66                     u2071:
  2666  0E66  2E77               	goto	l1552
  2667  0E67                     u2070:
  2668  0E67                     l1544:
  2669  0E67  0A5D               	incf	___fldiv@aexp,w
  2670  0E68  1D03               	btfss	3,2
  2671  0E69  2E6B               	goto	u2081
  2672  0E6A  2E6C               	goto	u2080
  2673  0E6B                     u2081:
  2674  0E6B  2E74               	goto	l1548
  2675  0E6C                     u2080:
  2676  0E6C                     l1546:
  2677  0E6C  3000               	movlw	0
  2678  0E6D  00C7               	movwf	___fldiv@a+3
  2679  0E6E  3000               	movlw	0
  2680  0E6F  00C6               	movwf	___fldiv@a+2
  2681  0E70  3000               	movlw	0
  2682  0E71  00C5               	movwf	___fldiv@a+1
  2683  0E72  3000               	movlw	0
  2684  0E73  00C4               	movwf	___fldiv@a
  2685  0E74                     l1548:
  2686  0E74  17C6               	bsf	___fldiv@a+2,7
  2687  0E75                     l1550:
  2688  0E75  01C7               	clrf	___fldiv@a+3
  2689  0E76  2E7F               	goto	l497
  2690  0E77                     l1552:
  2691  0E77  3000               	movlw	0
  2692  0E78  00C7               	movwf	___fldiv@a+3
  2693  0E79  3000               	movlw	0
  2694  0E7A  00C6               	movwf	___fldiv@a+2
  2695  0E7B  3000               	movlw	0
  2696  0E7C  00C5               	movwf	___fldiv@a+1
  2697  0E7D  3000               	movlw	0
  2698  0E7E  00C4               	movwf	___fldiv@a
  2699  0E7F                     l497:
  2700  0E7F  0847               	movf	___fldiv@a+3,w
  2701  0E80  0446               	iorwf	___fldiv@a+2,w
  2702  0E81  0445               	iorwf	___fldiv@a+1,w
  2703  0E82  0444               	iorwf	___fldiv@a,w
  2704  0E83  1D03               	skipz
  2705  0E84  2E86               	goto	u2091
  2706  0E85  2E87               	goto	u2090
  2707  0E86                     u2091:
  2708  0E86  2EA0               	goto	l1562
  2709  0E87                     u2090:
  2710  0E87                     l1554:
  2711  0E87  3000               	movlw	0
  2712  0E88  00CB               	movwf	___fldiv@b+3
  2713  0E89  3000               	movlw	0
  2714  0E8A  00CA               	movwf	___fldiv@b+2
  2715  0E8B  3000               	movlw	0
  2716  0E8C  00C9               	movwf	___fldiv@b+1
  2717  0E8D  3000               	movlw	0
  2718  0E8E  00C8               	movwf	___fldiv@b
  2719  0E8F  3080               	movlw	128
  2720  0E90  04CA               	iorwf	___fldiv@b+2,f
  2721  0E91  307F               	movlw	127
  2722  0E92  04CB               	iorwf	___fldiv@b+3,f
  2723  0E93                     l1556:
  2724  0E93  0855               	movf	___fldiv@sign,w
  2725  0E94  00CC               	movwf	??___fldiv
  2726  0E95  084C               	movf	??___fldiv,w
  2727  0E96  04CB               	iorwf	___fldiv@b+3,f
  2728  0E97                     l1558:
  2729  0E97  084B               	movf	___fldiv@b+3,w
  2730  0E98  00C7               	movwf	?___fldiv+3
  2731  0E99  084A               	movf	___fldiv@b+2,w
  2732  0E9A  00C6               	movwf	?___fldiv+2
  2733  0E9B  0849               	movf	___fldiv@b+1,w
  2734  0E9C  00C5               	movwf	?___fldiv+1
  2735  0E9D  0848               	movf	___fldiv@b,w
  2736  0E9E  00C4               	movwf	?___fldiv
  2737  0E9F  2FFF               	goto	l499
  2738  0EA0                     l1562:
  2739  0EA0  085C               	movf	___fldiv@bexp,w
  2740  0EA1  1D03               	btfss	3,2
  2741  0EA2  2EA4               	goto	u2101
  2742  0EA3  2EA5               	goto	u2100
  2743  0EA4                     u2101:
  2744  0EA4  2EAE               	goto	l1568
  2745  0EA5                     u2100:
  2746  0EA5                     l1564:
  2747  0EA5  3000               	movlw	0
  2748  0EA6  00C7               	movwf	?___fldiv+3
  2749  0EA7  3000               	movlw	0
  2750  0EA8  00C6               	movwf	?___fldiv+2
  2751  0EA9  3000               	movlw	0
  2752  0EAA  00C5               	movwf	?___fldiv+1
  2753  0EAB  3000               	movlw	0
  2754  0EAC  00C4               	movwf	?___fldiv
  2755  0EAD  2FFF               	goto	l499
  2756  0EAE                     l1568:
  2757  0EAE  085C               	movf	___fldiv@bexp,w
  2758  0EAF  00CC               	movwf	??___fldiv
  2759  0EB0  01CD               	clrf	??___fldiv+1
  2760  0EB1  084D               	movf	??___fldiv+1,w
  2761  0EB2  00CF               	movwf	??___fldiv+3
  2762  0EB3  085D               	movf	___fldiv@aexp,w
  2763  0EB4  024C               	subwf	??___fldiv,w
  2764  0EB5  00CE               	movwf	??___fldiv+2
  2765  0EB6  1C03               	skipc
  2766  0EB7  03CF               	decf	??___fldiv+3,f
  2767  0EB8  084E               	movf	??___fldiv+2,w
  2768  0EB9  3E7F               	addlw	127
  2769  0EBA  00D6               	movwf	___fldiv@new_exp
  2770  0EBB  084F               	movf	??___fldiv+3,w
  2771  0EBC  1803               	skipnc
  2772  0EBD  3E01               	addlw	1
  2773  0EBE  3E00               	addlw	0
  2774  0EBF  00D7               	movwf	___fldiv@new_exp+1
  2775  0EC0                     l1570:
  2776  0EC0  084B               	movf	___fldiv@b+3,w
  2777  0EC1  00D4               	movwf	___fldiv@rem+3
  2778  0EC2  084A               	movf	___fldiv@b+2,w
  2779  0EC3  00D3               	movwf	___fldiv@rem+2
  2780  0EC4  0849               	movf	___fldiv@b+1,w
  2781  0EC5  00D2               	movwf	___fldiv@rem+1
  2782  0EC6  0848               	movf	___fldiv@b,w
  2783  0EC7  00D1               	movwf	___fldiv@rem
  2784  0EC8                     l1572:
  2785  0EC8  3000               	movlw	0
  2786  0EC9  00CB               	movwf	___fldiv@b+3
  2787  0ECA  3000               	movlw	0
  2788  0ECB  00CA               	movwf	___fldiv@b+2
  2789  0ECC  3000               	movlw	0
  2790  0ECD  00C9               	movwf	___fldiv@b+1
  2791  0ECE  3000               	movlw	0
  2792  0ECF  00C8               	movwf	___fldiv@b
  2793  0ED0                     l1574:
  2794  0ED0  3000               	movlw	0
  2795  0ED1  00DB               	movwf	___fldiv@grs+3
  2796  0ED2  3000               	movlw	0
  2797  0ED3  00DA               	movwf	___fldiv@grs+2
  2798  0ED4  3000               	movlw	0
  2799  0ED5  00D9               	movwf	___fldiv@grs+1
  2800  0ED6  3000               	movlw	0
  2801  0ED7  00D8               	movwf	___fldiv@grs
  2802  0ED8                     l1576:
  2803  0ED8  01DD               	clrf	___fldiv@aexp
  2804  0ED9  2F24               	goto	l1596
  2805  0EDA                     l1578:
  2806  0EDA  085D               	movf	___fldiv@aexp,w
  2807  0EDB  1903               	btfsc	3,2
  2808  0EDC  2EDE               	goto	u2111
  2809  0EDD  2EDF               	goto	u2110
  2810  0EDE                     u2111:
  2811  0EDE  2EFF               	goto	l1588
  2812  0EDF                     u2110:
  2813  0EDF                     l1580:
  2814  0EDF  3001               	movlw	1
  2815  0EE0  00CC               	movwf	??___fldiv
  2816  0EE1                     u2125:
  2817  0EE1  1003               	clrc
  2818  0EE2  0DD1               	rlf	___fldiv@rem,f
  2819  0EE3  0DD2               	rlf	___fldiv@rem+1,f
  2820  0EE4  0DD3               	rlf	___fldiv@rem+2,f
  2821  0EE5  0DD4               	rlf	___fldiv@rem+3,f
  2822  0EE6  0BCC               	decfsz	??___fldiv,f
  2823  0EE7  2EE1               	goto	u2125
  2824  0EE8  3001               	movlw	1
  2825  0EE9  00CC               	movwf	??___fldiv
  2826  0EEA                     u2135:
  2827  0EEA  1003               	clrc
  2828  0EEB  0DC8               	rlf	___fldiv@b,f
  2829  0EEC  0DC9               	rlf	___fldiv@b+1,f
  2830  0EED  0DCA               	rlf	___fldiv@b+2,f
  2831  0EEE  0DCB               	rlf	___fldiv@b+3,f
  2832  0EEF  0BCC               	decfsz	??___fldiv,f
  2833  0EF0  2EEA               	goto	u2135
  2834  0EF1                     l1582:
  2835  0EF1  1FDB               	btfss	___fldiv@grs+3,7
  2836  0EF2  2EF4               	goto	u2141
  2837  0EF3  2EF5               	goto	u2140
  2838  0EF4                     u2141:
  2839  0EF4  2EF6               	goto	l1586
  2840  0EF5                     u2140:
  2841  0EF5                     l1584:
  2842  0EF5  1448               	bsf	___fldiv@b,0
  2843  0EF6                     l1586:
  2844  0EF6  3001               	movlw	1
  2845  0EF7  00CC               	movwf	??___fldiv
  2846  0EF8                     u2155:
  2847  0EF8  1003               	clrc
  2848  0EF9  0DD8               	rlf	___fldiv@grs,f
  2849  0EFA  0DD9               	rlf	___fldiv@grs+1,f
  2850  0EFB  0DDA               	rlf	___fldiv@grs+2,f
  2851  0EFC  0DDB               	rlf	___fldiv@grs+3,f
  2852  0EFD  0BCC               	decfsz	??___fldiv,f
  2853  0EFE  2EF8               	goto	u2155
  2854  0EFF                     l1588:
  2855  0EFF  0847               	movf	___fldiv@a+3,w
  2856  0F00  0254               	subwf	___fldiv@rem+3,w
  2857  0F01  1D03               	skipz
  2858  0F02  2F0D               	goto	u2165
  2859  0F03  0846               	movf	___fldiv@a+2,w
  2860  0F04  0253               	subwf	___fldiv@rem+2,w
  2861  0F05  1D03               	skipz
  2862  0F06  2F0D               	goto	u2165
  2863  0F07  0845               	movf	___fldiv@a+1,w
  2864  0F08  0252               	subwf	___fldiv@rem+1,w
  2865  0F09  1D03               	skipz
  2866  0F0A  2F0D               	goto	u2165
  2867  0F0B  0844               	movf	___fldiv@a,w
  2868  0F0C  0251               	subwf	___fldiv@rem,w
  2869  0F0D                     u2165:
  2870  0F0D  1C03               	skipc
  2871  0F0E  2F10               	goto	u2161
  2872  0F0F  2F11               	goto	u2160
  2873  0F10                     u2161:
  2874  0F10  2F20               	goto	l1594
  2875  0F11                     u2160:
  2876  0F11                     l1590:
  2877  0F11  175B               	bsf	___fldiv@grs+3,6
  2878  0F12                     l1592:
  2879  0F12  0844               	movf	___fldiv@a,w
  2880  0F13  02D1               	subwf	___fldiv@rem,f
  2881  0F14  0845               	movf	___fldiv@a+1,w
  2882  0F15  1C03               	skipc
  2883  0F16  0F45               	incfsz	___fldiv@a+1,w
  2884  0F17  02D2               	subwf	___fldiv@rem+1,f
  2885  0F18  0846               	movf	___fldiv@a+2,w
  2886  0F19  1C03               	skipc
  2887  0F1A  0F46               	incfsz	___fldiv@a+2,w
  2888  0F1B  02D3               	subwf	___fldiv@rem+2,f
  2889  0F1C  0847               	movf	___fldiv@a+3,w
  2890  0F1D  1C03               	skipc
  2891  0F1E  0F47               	incfsz	___fldiv@a+3,w
  2892  0F1F  02D4               	subwf	___fldiv@rem+3,f
  2893  0F20                     l1594:
  2894  0F20  3001               	movlw	1
  2895  0F21  00CC               	movwf	??___fldiv
  2896  0F22  084C               	movf	??___fldiv,w
  2897  0F23  07DD               	addwf	___fldiv@aexp,f
  2898  0F24                     l1596:
  2899  0F24  301A               	movlw	26
  2900  0F25  025D               	subwf	___fldiv@aexp,w
  2901  0F26  1C03               	skipc
  2902  0F27  2F29               	goto	u2171
  2903  0F28  2F2A               	goto	u2170
  2904  0F29                     u2171:
  2905  0F29  2EDA               	goto	l1578
  2906  0F2A                     u2170:
  2907  0F2A                     l1598:
  2908  0F2A  0854               	movf	___fldiv@rem+3,w
  2909  0F2B  0453               	iorwf	___fldiv@rem+2,w
  2910  0F2C  0452               	iorwf	___fldiv@rem+1,w
  2911  0F2D  0451               	iorwf	___fldiv@rem,w
  2912  0F2E  1903               	skipnz
  2913  0F2F  2F31               	goto	u2181
  2914  0F30  2F32               	goto	u2180
  2915  0F31                     u2181:
  2916  0F31  2F51               	goto	l1612
  2917  0F32                     u2180:
  2918  0F32                     l1600:
  2919  0F32  1458               	bsf	___fldiv@grs,0
  2920  0F33  2F51               	goto	l1612
  2921  0F34                     l1602:
  2922  0F34  3001               	movlw	1
  2923  0F35  00CC               	movwf	??___fldiv
  2924  0F36                     u2195:
  2925  0F36  1003               	clrc
  2926  0F37  0DC8               	rlf	___fldiv@b,f
  2927  0F38  0DC9               	rlf	___fldiv@b+1,f
  2928  0F39  0DCA               	rlf	___fldiv@b+2,f
  2929  0F3A  0DCB               	rlf	___fldiv@b+3,f
  2930  0F3B  0BCC               	decfsz	??___fldiv,f
  2931  0F3C  2F36               	goto	u2195
  2932  0F3D                     l1604:
  2933  0F3D  1FDB               	btfss	___fldiv@grs+3,7
  2934  0F3E  2F40               	goto	u2201
  2935  0F3F  2F41               	goto	u2200
  2936  0F40                     u2201:
  2937  0F40  2F42               	goto	l1608
  2938  0F41                     u2200:
  2939  0F41                     l1606:
  2940  0F41  1448               	bsf	___fldiv@b,0
  2941  0F42                     l1608:
  2942  0F42  3001               	movlw	1
  2943  0F43  00CC               	movwf	??___fldiv
  2944  0F44                     u2215:
  2945  0F44  1003               	clrc
  2946  0F45  0DD8               	rlf	___fldiv@grs,f
  2947  0F46  0DD9               	rlf	___fldiv@grs+1,f
  2948  0F47  0DDA               	rlf	___fldiv@grs+2,f
  2949  0F48  0DDB               	rlf	___fldiv@grs+3,f
  2950  0F49  0BCC               	decfsz	??___fldiv,f
  2951  0F4A  2F44               	goto	u2215
  2952  0F4B                     l1610:
  2953  0F4B  30FF               	movlw	255
  2954  0F4C  07D6               	addwf	___fldiv@new_exp,f
  2955  0F4D  1803               	skipnc
  2956  0F4E  0AD7               	incf	___fldiv@new_exp+1,f
  2957  0F4F  30FF               	movlw	255
  2958  0F50  07D7               	addwf	___fldiv@new_exp+1,f
  2959  0F51                     l1612:
  2960  0F51  1FCA               	btfss	___fldiv@b+2,7
  2961  0F52  2F54               	goto	u2221
  2962  0F53  2F55               	goto	u2220
  2963  0F54                     u2221:
  2964  0F54  2F34               	goto	l1602
  2965  0F55                     u2220:
  2966  0F55                     l1614:
  2967  0F55  01DD               	clrf	___fldiv@aexp
  2968  0F56                     l1616:
  2969  0F56  1FDB               	btfss	___fldiv@grs+3,7
  2970  0F57  2F59               	goto	u2231
  2971  0F58  2F5A               	goto	u2230
  2972  0F59                     u2231:
  2973  0F59  2F76               	goto	l1624
  2974  0F5A                     u2230:
  2975  0F5A                     l1618:
  2976  0F5A  30FF               	movlw	255
  2977  0F5B  0558               	andwf	___fldiv@grs,w
  2978  0F5C  00CC               	movwf	??___fldiv
  2979  0F5D  30FF               	movlw	255
  2980  0F5E  0559               	andwf	___fldiv@grs+1,w
  2981  0F5F  00CD               	movwf	??___fldiv+1
  2982  0F60  30FF               	movlw	255
  2983  0F61  055A               	andwf	___fldiv@grs+2,w
  2984  0F62  00CE               	movwf	??___fldiv+2
  2985  0F63  307F               	movlw	127
  2986  0F64  055B               	andwf	___fldiv@grs+3,w
  2987  0F65  00CF               	movwf	??___fldiv+3
  2988  0F66  084F               	movf	??___fldiv+3,w
  2989  0F67  044E               	iorwf	??___fldiv+2,w
  2990  0F68  044D               	iorwf	??___fldiv+1,w
  2991  0F69  044C               	iorwf	??___fldiv,w
  2992  0F6A  1903               	skipnz
  2993  0F6B  2F6D               	goto	u2241
  2994  0F6C  2F6E               	goto	u2240
  2995  0F6D                     u2241:
  2996  0F6D  2F71               	goto	l513
  2997  0F6E                     u2240:
  2998  0F6E                     l1620:
  2999  0F6E  01DD               	clrf	___fldiv@aexp
  3000  0F6F  0ADD               	incf	___fldiv@aexp,f
  3001  0F70  2F76               	goto	l1624
  3002  0F71                     l513:
  3003  0F71  1C48               	btfss	___fldiv@b,0
  3004  0F72  2F74               	goto	u2251
  3005  0F73  2F75               	goto	u2250
  3006  0F74                     u2251:
  3007  0F74  2F76               	goto	l1624
  3008  0F75                     u2250:
  3009  0F75  2F6E               	goto	l1620
  3010  0F76                     l1624:
  3011  0F76  085D               	movf	___fldiv@aexp,w
  3012  0F77  1903               	btfsc	3,2
  3013  0F78  2F7A               	goto	u2261
  3014  0F79  2F7B               	goto	u2260
  3015  0F7A                     u2261:
  3016  0F7A  2FAC               	goto	l1634
  3017  0F7B                     u2260:
  3018  0F7B                     l1626:
  3019  0F7B  3001               	movlw	1
  3020  0F7C  07C8               	addwf	___fldiv@b,f
  3021  0F7D  3000               	movlw	0
  3022  0F7E  1803               	skipnc
  3023  0F7F  3001               	movlw	1
  3024  0F80  07C9               	addwf	___fldiv@b+1,f
  3025  0F81  3000               	movlw	0
  3026  0F82  1803               	skipnc
  3027  0F83  3001               	movlw	1
  3028  0F84  07CA               	addwf	___fldiv@b+2,f
  3029  0F85  3000               	movlw	0
  3030  0F86  1803               	skipnc
  3031  0F87  3001               	movlw	1
  3032  0F88  07CB               	addwf	___fldiv@b+3,f
  3033  0F89                     l1628:
  3034  0F89  1C4B               	btfss	___fldiv@b+3,0
  3035  0F8A  2F8C               	goto	u2271
  3036  0F8B  2F8D               	goto	u2270
  3037  0F8C                     u2271:
  3038  0F8C  2FAC               	goto	l1634
  3039  0F8D                     u2270:
  3040  0F8D                     l1630:
  3041  0F8D  0848               	movf	___fldiv@b,w
  3042  0F8E  00CC               	movwf	??___fldiv
  3043  0F8F  0849               	movf	___fldiv@b+1,w
  3044  0F90  00CD               	movwf	??___fldiv+1
  3045  0F91  084A               	movf	___fldiv@b+2,w
  3046  0F92  00CE               	movwf	??___fldiv+2
  3047  0F93  084B               	movf	___fldiv@b+3,w
  3048  0F94  00CF               	movwf	??___fldiv+3
  3049  0F95  3001               	movlw	1
  3050  0F96  00D0               	movwf	??___fldiv+4
  3051  0F97                     u2285:
  3052  0F97  0D4F               	rlf	??___fldiv+3,w
  3053  0F98  0CCF               	rrf	??___fldiv+3,f
  3054  0F99  0CCE               	rrf	??___fldiv+2,f
  3055  0F9A  0CCD               	rrf	??___fldiv+1,f
  3056  0F9B  0CCC               	rrf	??___fldiv,f
  3057  0F9C                     u2280:
  3058  0F9C  0BD0               	decfsz	??___fldiv+4,f
  3059  0F9D  2F97               	goto	u2285
  3060  0F9E  084F               	movf	??___fldiv+3,w
  3061  0F9F  00CB               	movwf	___fldiv@b+3
  3062  0FA0  084E               	movf	??___fldiv+2,w
  3063  0FA1  00CA               	movwf	___fldiv@b+2
  3064  0FA2  084D               	movf	??___fldiv+1,w
  3065  0FA3  00C9               	movwf	___fldiv@b+1
  3066  0FA4  084C               	movf	??___fldiv,w
  3067  0FA5  00C8               	movwf	___fldiv@b
  3068  0FA6                     l1632:
  3069  0FA6  3001               	movlw	1
  3070  0FA7  07D6               	addwf	___fldiv@new_exp,f
  3071  0FA8  1803               	skipnc
  3072  0FA9  0AD7               	incf	___fldiv@new_exp+1,f
  3073  0FAA  3000               	movlw	0
  3074  0FAB  07D7               	addwf	___fldiv@new_exp+1,f
  3075  0FAC                     l1634:
  3076  0FAC  0857               	movf	___fldiv@new_exp+1,w
  3077  0FAD  3A80               	xorlw	128
  3078  0FAE  00FF               	movwf	btemp+1
  3079  0FAF  3080               	movlw	128
  3080  0FB0  027F               	subwf	btemp+1,w
  3081  0FB1  1D03               	skipz
  3082  0FB2  2FB5               	goto	u2295
  3083  0FB3  30FF               	movlw	255
  3084  0FB4  0256               	subwf	___fldiv@new_exp,w
  3085  0FB5                     u2295:
  3086  0FB5  1C03               	skipc
  3087  0FB6  2FB8               	goto	u2291
  3088  0FB7  2FB9               	goto	u2290
  3089  0FB8                     u2291:
  3090  0FB8  2FC7               	goto	l1638
  3091  0FB9                     u2290:
  3092  0FB9                     l1636:
  3093  0FB9  30FF               	movlw	255
  3094  0FBA  1283               	bcf	3,5	;RP0=0, select bank0
  3095  0FBB  1303               	bcf	3,6	;RP1=0, select bank0
  3096  0FBC  00D6               	movwf	___fldiv@new_exp
  3097  0FBD  3000               	movlw	0
  3098  0FBE  00D7               	movwf	___fldiv@new_exp+1
  3099  0FBF  3000               	movlw	0
  3100  0FC0  00CB               	movwf	___fldiv@b+3
  3101  0FC1  3000               	movlw	0
  3102  0FC2  00CA               	movwf	___fldiv@b+2
  3103  0FC3  3000               	movlw	0
  3104  0FC4  00C9               	movwf	___fldiv@b+1
  3105  0FC5  3000               	movlw	0
  3106  0FC6  00C8               	movwf	___fldiv@b
  3107  0FC7                     l1638:
  3108  0FC7  1283               	bcf	3,5	;RP0=0, select bank0
  3109  0FC8  1303               	bcf	3,6	;RP1=0, select bank0
  3110  0FC9  0857               	movf	___fldiv@new_exp+1,w
  3111  0FCA  3A80               	xorlw	128
  3112  0FCB  00FF               	movwf	btemp+1
  3113  0FCC  3080               	movlw	128
  3114  0FCD  027F               	subwf	btemp+1,w
  3115  0FCE  1D03               	skipz
  3116  0FCF  2FD2               	goto	u2305
  3117  0FD0  3001               	movlw	1
  3118  0FD1  0256               	subwf	___fldiv@new_exp,w
  3119  0FD2                     u2305:
  3120  0FD2  1803               	skipnc
  3121  0FD3  2FD5               	goto	u2301
  3122  0FD4  2FD6               	goto	u2300
  3123  0FD5                     u2301:
  3124  0FD5  2FE3               	goto	l519
  3125  0FD6                     u2300:
  3126  0FD6                     l1640:
  3127  0FD6  1283               	bcf	3,5	;RP0=0, select bank0
  3128  0FD7  1303               	bcf	3,6	;RP1=0, select bank0
  3129  0FD8  01D6               	clrf	___fldiv@new_exp
  3130  0FD9  01D7               	clrf	___fldiv@new_exp+1
  3131  0FDA                     l1642:
  3132  0FDA  3000               	movlw	0
  3133  0FDB  00CB               	movwf	___fldiv@b+3
  3134  0FDC  3000               	movlw	0
  3135  0FDD  00CA               	movwf	___fldiv@b+2
  3136  0FDE  3000               	movlw	0
  3137  0FDF  00C9               	movwf	___fldiv@b+1
  3138  0FE0  3000               	movlw	0
  3139  0FE1  00C8               	movwf	___fldiv@b
  3140  0FE2                     l1644:
  3141  0FE2  01D5               	clrf	___fldiv@sign
  3142  0FE3                     l519:
  3143  0FE3  1283               	bcf	3,5	;RP0=0, select bank0
  3144  0FE4  1303               	bcf	3,6	;RP1=0, select bank0
  3145  0FE5  0856               	movf	___fldiv@new_exp,w
  3146  0FE6  00CC               	movwf	??___fldiv
  3147  0FE7  084C               	movf	??___fldiv,w
  3148  0FE8  00DC               	movwf	___fldiv@bexp
  3149  0FE9                     l1646:
  3150  0FE9  1C5C               	btfss	___fldiv@bexp,0
  3151  0FEA  2FEC               	goto	u2311
  3152  0FEB  2FED               	goto	u2310
  3153  0FEC                     u2311:
  3154  0FEC  2FEF               	goto	l1650
  3155  0FED                     u2310:
  3156  0FED                     l1648:
  3157  0FED  17CA               	bsf	___fldiv@b+2,7
  3158  0FEE  2FF3               	goto	l521
  3159  0FEF                     l1650:
  3160  0FEF  307F               	movlw	127
  3161  0FF0  00CC               	movwf	??___fldiv
  3162  0FF1  084C               	movf	??___fldiv,w
  3163  0FF2  05CA               	andwf	___fldiv@b+2,f
  3164  0FF3                     l521:
  3165  0FF3  085C               	movf	___fldiv@bexp,w
  3166  0FF4  00CC               	movwf	??___fldiv
  3167  0FF5  1003               	clrc
  3168  0FF6  0C4C               	rrf	??___fldiv,w
  3169  0FF7  00CD               	movwf	??___fldiv+1
  3170  0FF8  084D               	movf	??___fldiv+1,w
  3171  0FF9  00CB               	movwf	___fldiv@b+3
  3172  0FFA  0855               	movf	___fldiv@sign,w
  3173  0FFB  00CC               	movwf	??___fldiv
  3174  0FFC  084C               	movf	??___fldiv,w
  3175  0FFD  04CB               	iorwf	___fldiv@b+3,f
  3176  0FFE  2E97               	goto	l1558
  3177  0FFF                     l499:
  3178  0FFF  0008               	return
  3179  1000                     __end_of___fldiv:
  3180                           
  3181                           	psect	text7
  3182  015B                     __ptext7:	
  3183 ;; *************** function ___fladd *****************
  3184 ;; Defined at:
  3185 ;;		line 10 in file "C:\Program Files\Microchip\xc8\v2.30\pic\sources\c90\common\sprcadd.c"
  3186 ;; Parameters:    Size  Location     Type
  3187 ;;  b               4   62[BANK0 ] unsigned char 
  3188 ;;  a               4   66[BANK0 ] unsigned char 
  3189 ;; Auto vars:     Size  Location     Type
  3190 ;;  grs             1    3[BANK1 ] unsigned char 
  3191 ;;  bexp            1    2[BANK1 ] unsigned char 
  3192 ;;  aexp            1    1[BANK1 ] unsigned char 
  3193 ;;  signs           1    0[BANK1 ] unsigned char 
  3194 ;; Return value:  Size  Location     Type
  3195 ;;                  4   62[BANK0 ] unsigned char 
  3196 ;; Registers used:
  3197 ;;		wreg, status,2, status,0, btemp+1
  3198 ;; Tracked objects:
  3199 ;;		On entry : 0/0
  3200 ;;		On exit  : 0/0
  3201 ;;		Unchanged: 0/0
  3202 ;; Data sizes:     COMMON   BANK0   BANK1   BANK3   BANK2
  3203 ;;      Params:         0       8       0       0       0
  3204 ;;      Locals:         0       0       4       0       0
  3205 ;;      Temps:          0       8       0       0       0
  3206 ;;      Totals:         0      16       4       0       0
  3207 ;;Total ram usage:       20 bytes
  3208 ;; Hardware stack levels used:    1
  3209 ;; This function calls:
  3210 ;;		Nothing
  3211 ;; This function is called by:
  3212 ;;		_startPWM1
  3213 ;;		_startPWM2
  3214 ;; This function uses a non-reentrant model
  3215 ;;
  3216                           
  3217                           
  3218                           ;psect for function ___fladd
  3219  015B                     ___fladd:
  3220  015B                     l1320:	
  3221                           ;incstack = 0
  3222                           ; Regs used in ___fladd: [wreg+status,2+status,0+btemp+1]
  3223                           
  3224  015B  1283               	bcf	3,5	;RP0=0, select bank0
  3225  015C  1303               	bcf	3,6	;RP1=0, select bank0
  3226  015D  0861               	movf	___fladd@b+3,w
  3227  015E  3980               	andlw	128
  3228  015F  00E6               	movwf	??___fladd
  3229  0160  0866               	movf	??___fladd,w
  3230  0161  1683               	bsf	3,5	;RP0=1, select bank1
  3231  0162  1303               	bcf	3,6	;RP1=0, select bank1
  3232  0163  00A0               	movwf	___fladd@signs^(0+128)
  3233  0164                     l1322:
  3234  0164  1283               	bcf	3,5	;RP0=0, select bank0
  3235  0165  1303               	bcf	3,6	;RP1=0, select bank0
  3236  0166  0861               	movf	___fladd@b+3,w
  3237  0167  00E6               	movwf	??___fladd
  3238  0168  0766               	addwf	??___fladd,w
  3239  0169  00E7               	movwf	??___fladd+1
  3240  016A  0867               	movf	??___fladd+1,w
  3241  016B  1683               	bsf	3,5	;RP0=1, select bank1
  3242  016C  1303               	bcf	3,6	;RP1=0, select bank1
  3243  016D  00A2               	movwf	___fladd@bexp^(0+128)
  3244  016E                     l1324:
  3245  016E  1283               	bcf	3,5	;RP0=0, select bank0
  3246  016F  1303               	bcf	3,6	;RP1=0, select bank0
  3247  0170  1FE0               	btfss	___fladd@b+2,7
  3248  0171  2973               	goto	u1571
  3249  0172  2974               	goto	u1570
  3250  0173                     u1571:
  3251  0173  2977               	goto	l1328
  3252  0174                     u1570:
  3253  0174                     l1326:
  3254  0174  1683               	bsf	3,5	;RP0=1, select bank1
  3255  0175  1303               	bcf	3,6	;RP1=0, select bank1
  3256  0176  1422               	bsf	___fladd@bexp^(0+128),0
  3257  0177                     l1328:
  3258  0177  1683               	bsf	3,5	;RP0=1, select bank1
  3259  0178  1303               	bcf	3,6	;RP1=0, select bank1
  3260  0179  0822               	movf	___fladd@bexp^(0+128),w
  3261  017A  1903               	btfsc	3,2
  3262  017B  297D               	goto	u1581
  3263  017C  297E               	goto	u1580
  3264  017D                     u1581:
  3265  017D  2991               	goto	l1338
  3266  017E                     u1580:
  3267  017E                     l1330:
  3268  017E  0A22               	incf	___fladd@bexp^(0+128),w
  3269  017F  1D03               	btfss	3,2
  3270  0180  2982               	goto	u1591
  3271  0181  2983               	goto	u1590
  3272  0182                     u1591:
  3273  0182  298D               	goto	l1334
  3274  0183                     u1590:
  3275  0183                     l1332:
  3276  0183  3000               	movlw	0
  3277  0184  1283               	bcf	3,5	;RP0=0, select bank0
  3278  0185  1303               	bcf	3,6	;RP1=0, select bank0
  3279  0186  00E1               	movwf	___fladd@b+3
  3280  0187  3000               	movlw	0
  3281  0188  00E0               	movwf	___fladd@b+2
  3282  0189  3000               	movlw	0
  3283  018A  00DF               	movwf	___fladd@b+1
  3284  018B  3000               	movlw	0
  3285  018C  00DE               	movwf	___fladd@b
  3286  018D                     l1334:
  3287  018D  1283               	bcf	3,5	;RP0=0, select bank0
  3288  018E  17E0               	bsf	___fladd@b+2,7
  3289  018F                     l1336:
  3290  018F  01E1               	clrf	___fladd@b+3
  3291  0190  299B               	goto	l1340
  3292  0191                     l1338:
  3293  0191  3000               	movlw	0
  3294  0192  1283               	bcf	3,5	;RP0=0, select bank0
  3295  0193  1303               	bcf	3,6	;RP1=0, select bank0
  3296  0194  00E1               	movwf	___fladd@b+3
  3297  0195  3000               	movlw	0
  3298  0196  00E0               	movwf	___fladd@b+2
  3299  0197  3000               	movlw	0
  3300  0198  00DF               	movwf	___fladd@b+1
  3301  0199  3000               	movlw	0
  3302  019A  00DE               	movwf	___fladd@b
  3303  019B                     l1340:
  3304  019B  0865               	movf	___fladd@a+3,w
  3305  019C  3980               	andlw	128
  3306  019D  00E6               	movwf	??___fladd
  3307  019E  0866               	movf	??___fladd,w
  3308  019F  1683               	bsf	3,5	;RP0=1, select bank1
  3309  01A0  1303               	bcf	3,6	;RP1=0, select bank1
  3310  01A1  00A1               	movwf	___fladd@aexp^(0+128)
  3311  01A2                     l1342:
  3312  01A2  0821               	movf	___fladd@aexp^(0+128),w
  3313  01A3  0620               	xorwf	___fladd@signs^(0+128),w
  3314  01A4  1903               	skipnz
  3315  01A5  29A7               	goto	u1601
  3316  01A6  29A8               	goto	u1600
  3317  01A7                     u1601:
  3318  01A7  29A9               	goto	l1346
  3319  01A8                     u1600:
  3320  01A8                     l1344:
  3321  01A8  1720               	bsf	___fladd@signs^(0+128),6
  3322  01A9                     l1346:
  3323  01A9  1283               	bcf	3,5	;RP0=0, select bank0
  3324  01AA  1303               	bcf	3,6	;RP1=0, select bank0
  3325  01AB  0865               	movf	___fladd@a+3,w
  3326  01AC  00E6               	movwf	??___fladd
  3327  01AD  0766               	addwf	??___fladd,w
  3328  01AE  00E7               	movwf	??___fladd+1
  3329  01AF  0867               	movf	??___fladd+1,w
  3330  01B0  1683               	bsf	3,5	;RP0=1, select bank1
  3331  01B1  1303               	bcf	3,6	;RP1=0, select bank1
  3332  01B2  00A1               	movwf	___fladd@aexp^(0+128)
  3333  01B3                     l1348:
  3334  01B3  1283               	bcf	3,5	;RP0=0, select bank0
  3335  01B4  1303               	bcf	3,6	;RP1=0, select bank0
  3336  01B5  1FE4               	btfss	___fladd@a+2,7
  3337  01B6  29B8               	goto	u1611
  3338  01B7  29B9               	goto	u1610
  3339  01B8                     u1611:
  3340  01B8  29BC               	goto	l1352
  3341  01B9                     u1610:
  3342  01B9                     l1350:
  3343  01B9  1683               	bsf	3,5	;RP0=1, select bank1
  3344  01BA  1303               	bcf	3,6	;RP1=0, select bank1
  3345  01BB  1421               	bsf	___fladd@aexp^(0+128),0
  3346  01BC                     l1352:
  3347  01BC  1683               	bsf	3,5	;RP0=1, select bank1
  3348  01BD  1303               	bcf	3,6	;RP1=0, select bank1
  3349  01BE  0821               	movf	___fladd@aexp^(0+128),w
  3350  01BF  1903               	btfsc	3,2
  3351  01C0  29C2               	goto	u1621
  3352  01C1  29C3               	goto	u1620
  3353  01C2                     u1621:
  3354  01C2  29D6               	goto	l1362
  3355  01C3                     u1620:
  3356  01C3                     l1354:
  3357  01C3  0A21               	incf	___fladd@aexp^(0+128),w
  3358  01C4  1D03               	btfss	3,2
  3359  01C5  29C7               	goto	u1631
  3360  01C6  29C8               	goto	u1630
  3361  01C7                     u1631:
  3362  01C7  29D2               	goto	l1358
  3363  01C8                     u1630:
  3364  01C8                     l1356:
  3365  01C8  3000               	movlw	0
  3366  01C9  1283               	bcf	3,5	;RP0=0, select bank0
  3367  01CA  1303               	bcf	3,6	;RP1=0, select bank0
  3368  01CB  00E5               	movwf	___fladd@a+3
  3369  01CC  3000               	movlw	0
  3370  01CD  00E4               	movwf	___fladd@a+2
  3371  01CE  3000               	movlw	0
  3372  01CF  00E3               	movwf	___fladd@a+1
  3373  01D0  3000               	movlw	0
  3374  01D1  00E2               	movwf	___fladd@a
  3375  01D2                     l1358:
  3376  01D2  1283               	bcf	3,5	;RP0=0, select bank0
  3377  01D3  17E4               	bsf	___fladd@a+2,7
  3378  01D4                     l1360:
  3379  01D4  01E5               	clrf	___fladd@a+3
  3380  01D5  29E0               	goto	l441
  3381  01D6                     l1362:
  3382  01D6  3000               	movlw	0
  3383  01D7  1283               	bcf	3,5	;RP0=0, select bank0
  3384  01D8  1303               	bcf	3,6	;RP1=0, select bank0
  3385  01D9  00E5               	movwf	___fladd@a+3
  3386  01DA  3000               	movlw	0
  3387  01DB  00E4               	movwf	___fladd@a+2
  3388  01DC  3000               	movlw	0
  3389  01DD  00E3               	movwf	___fladd@a+1
  3390  01DE  3000               	movlw	0
  3391  01DF  00E2               	movwf	___fladd@a
  3392  01E0                     l441:
  3393  01E0  1683               	bsf	3,5	;RP0=1, select bank1
  3394  01E1  1303               	bcf	3,6	;RP1=0, select bank1
  3395  01E2  0822               	movf	___fladd@bexp^(0+128),w
  3396  01E3  0221               	subwf	___fladd@aexp^(0+128),w
  3397  01E4  1803               	skipnc
  3398  01E5  29E7               	goto	u1641
  3399  01E6  29E8               	goto	u1640
  3400  01E7                     u1641:
  3401  01E7  2A5E               	goto	l1398
  3402  01E8                     u1640:
  3403  01E8                     l1364:
  3404  01E8  1F20               	btfss	___fladd@signs^(0+128),6
  3405  01E9  29EB               	goto	u1651
  3406  01EA  29EC               	goto	u1650
  3407  01EB                     u1651:
  3408  01EB  29F4               	goto	l1368
  3409  01EC                     u1650:
  3410  01EC                     l1366:
  3411  01EC  3080               	movlw	128
  3412  01ED  1283               	bcf	3,5	;RP0=0, select bank0
  3413  01EE  1303               	bcf	3,6	;RP1=0, select bank0
  3414  01EF  00E6               	movwf	??___fladd
  3415  01F0  0866               	movf	??___fladd,w
  3416  01F1  1683               	bsf	3,5	;RP0=1, select bank1
  3417  01F2  1303               	bcf	3,6	;RP1=0, select bank1
  3418  01F3  06A0               	xorwf	___fladd@signs^(0+128),f
  3419  01F4                     l1368:
  3420  01F4  0822               	movf	___fladd@bexp^(0+128),w
  3421  01F5  1283               	bcf	3,5	;RP0=0, select bank0
  3422  01F6  1303               	bcf	3,6	;RP1=0, select bank0
  3423  01F7  00E6               	movwf	??___fladd
  3424  01F8  0866               	movf	??___fladd,w
  3425  01F9  1683               	bsf	3,5	;RP0=1, select bank1
  3426  01FA  1303               	bcf	3,6	;RP1=0, select bank1
  3427  01FB  00A3               	movwf	___fladd@grs^(0+128)
  3428  01FC                     l1370:
  3429  01FC  0821               	movf	___fladd@aexp^(0+128),w
  3430  01FD  1283               	bcf	3,5	;RP0=0, select bank0
  3431  01FE  1303               	bcf	3,6	;RP1=0, select bank0
  3432  01FF  00E6               	movwf	??___fladd
  3433  0200  0866               	movf	??___fladd,w
  3434  0201  1683               	bsf	3,5	;RP0=1, select bank1
  3435  0202  1303               	bcf	3,6	;RP1=0, select bank1
  3436  0203  00A2               	movwf	___fladd@bexp^(0+128)
  3437  0204                     l1372:
  3438  0204  0823               	movf	___fladd@grs^(0+128),w
  3439  0205  1283               	bcf	3,5	;RP0=0, select bank0
  3440  0206  1303               	bcf	3,6	;RP1=0, select bank0
  3441  0207  00E6               	movwf	??___fladd
  3442  0208  0866               	movf	??___fladd,w
  3443  0209  1683               	bsf	3,5	;RP0=1, select bank1
  3444  020A  1303               	bcf	3,6	;RP1=0, select bank1
  3445  020B  00A1               	movwf	___fladd@aexp^(0+128)
  3446  020C                     l1374:
  3447  020C  1283               	bcf	3,5	;RP0=0, select bank0
  3448  020D  1303               	bcf	3,6	;RP1=0, select bank0
  3449  020E  085E               	movf	___fladd@b,w
  3450  020F  00E6               	movwf	??___fladd
  3451  0210  0866               	movf	??___fladd,w
  3452  0211  1683               	bsf	3,5	;RP0=1, select bank1
  3453  0212  1303               	bcf	3,6	;RP1=0, select bank1
  3454  0213  00A3               	movwf	___fladd@grs^(0+128)
  3455  0214                     l1376:
  3456  0214  1283               	bcf	3,5	;RP0=0, select bank0
  3457  0215  1303               	bcf	3,6	;RP1=0, select bank0
  3458  0216  0862               	movf	___fladd@a,w
  3459  0217  00E6               	movwf	??___fladd
  3460  0218  0866               	movf	??___fladd,w
  3461  0219  00DE               	movwf	___fladd@b
  3462  021A                     l1378:
  3463  021A  1683               	bsf	3,5	;RP0=1, select bank1
  3464  021B  1303               	bcf	3,6	;RP1=0, select bank1
  3465  021C  0823               	movf	___fladd@grs^(0+128),w
  3466  021D  1283               	bcf	3,5	;RP0=0, select bank0
  3467  021E  1303               	bcf	3,6	;RP1=0, select bank0
  3468  021F  00E6               	movwf	??___fladd
  3469  0220  0866               	movf	??___fladd,w
  3470  0221  00E2               	movwf	___fladd@a
  3471  0222                     l1380:
  3472  0222  085F               	movf	___fladd@b+1,w
  3473  0223  00E6               	movwf	??___fladd
  3474  0224  0866               	movf	??___fladd,w
  3475  0225  1683               	bsf	3,5	;RP0=1, select bank1
  3476  0226  1303               	bcf	3,6	;RP1=0, select bank1
  3477  0227  00A3               	movwf	___fladd@grs^(0+128)
  3478  0228                     l1382:
  3479  0228  1283               	bcf	3,5	;RP0=0, select bank0
  3480  0229  1303               	bcf	3,6	;RP1=0, select bank0
  3481  022A  0863               	movf	___fladd@a+1,w
  3482  022B  00E6               	movwf	??___fladd
  3483  022C  0866               	movf	??___fladd,w
  3484  022D  00DF               	movwf	___fladd@b+1
  3485  022E                     l1384:
  3486  022E  1683               	bsf	3,5	;RP0=1, select bank1
  3487  022F  1303               	bcf	3,6	;RP1=0, select bank1
  3488  0230  0823               	movf	___fladd@grs^(0+128),w
  3489  0231  1283               	bcf	3,5	;RP0=0, select bank0
  3490  0232  1303               	bcf	3,6	;RP1=0, select bank0
  3491  0233  00E6               	movwf	??___fladd
  3492  0234  0866               	movf	??___fladd,w
  3493  0235  00E3               	movwf	___fladd@a+1
  3494  0236                     l1386:
  3495  0236  0860               	movf	___fladd@b+2,w
  3496  0237  00E6               	movwf	??___fladd
  3497  0238  0866               	movf	??___fladd,w
  3498  0239  1683               	bsf	3,5	;RP0=1, select bank1
  3499  023A  1303               	bcf	3,6	;RP1=0, select bank1
  3500  023B  00A3               	movwf	___fladd@grs^(0+128)
  3501  023C                     l1388:
  3502  023C  1283               	bcf	3,5	;RP0=0, select bank0
  3503  023D  1303               	bcf	3,6	;RP1=0, select bank0
  3504  023E  0864               	movf	___fladd@a+2,w
  3505  023F  00E6               	movwf	??___fladd
  3506  0240  0866               	movf	??___fladd,w
  3507  0241  00E0               	movwf	___fladd@b+2
  3508  0242                     l1390:
  3509  0242  1683               	bsf	3,5	;RP0=1, select bank1
  3510  0243  1303               	bcf	3,6	;RP1=0, select bank1
  3511  0244  0823               	movf	___fladd@grs^(0+128),w
  3512  0245  1283               	bcf	3,5	;RP0=0, select bank0
  3513  0246  1303               	bcf	3,6	;RP1=0, select bank0
  3514  0247  00E6               	movwf	??___fladd
  3515  0248  0866               	movf	??___fladd,w
  3516  0249  00E4               	movwf	___fladd@a+2
  3517  024A                     l1392:
  3518  024A  0861               	movf	___fladd@b+3,w
  3519  024B  00E6               	movwf	??___fladd
  3520  024C  0866               	movf	??___fladd,w
  3521  024D  1683               	bsf	3,5	;RP0=1, select bank1
  3522  024E  1303               	bcf	3,6	;RP1=0, select bank1
  3523  024F  00A3               	movwf	___fladd@grs^(0+128)
  3524  0250                     l1394:
  3525  0250  1283               	bcf	3,5	;RP0=0, select bank0
  3526  0251  1303               	bcf	3,6	;RP1=0, select bank0
  3527  0252  0865               	movf	___fladd@a+3,w
  3528  0253  00E6               	movwf	??___fladd
  3529  0254  0866               	movf	??___fladd,w
  3530  0255  00E1               	movwf	___fladd@b+3
  3531  0256                     l1396:
  3532  0256  1683               	bsf	3,5	;RP0=1, select bank1
  3533  0257  1303               	bcf	3,6	;RP1=0, select bank1
  3534  0258  0823               	movf	___fladd@grs^(0+128),w
  3535  0259  1283               	bcf	3,5	;RP0=0, select bank0
  3536  025A  1303               	bcf	3,6	;RP1=0, select bank0
  3537  025B  00E6               	movwf	??___fladd
  3538  025C  0866               	movf	??___fladd,w
  3539  025D  00E5               	movwf	___fladd@a+3
  3540  025E                     l1398:
  3541  025E  1683               	bsf	3,5	;RP0=1, select bank1
  3542  025F  1303               	bcf	3,6	;RP1=0, select bank1
  3543  0260  01A3               	clrf	___fladd@grs^(0+128)
  3544  0261                     l1400:
  3545  0261  0821               	movf	___fladd@aexp^(0+128),w
  3546  0262  1283               	bcf	3,5	;RP0=0, select bank0
  3547  0263  1303               	bcf	3,6	;RP1=0, select bank0
  3548  0264  00E6               	movwf	??___fladd
  3549  0265  01E7               	clrf	??___fladd+1
  3550  0266  0867               	movf	??___fladd+1,w
  3551  0267  00E9               	movwf	??___fladd+3
  3552  0268  1683               	bsf	3,5	;RP0=1, select bank1
  3553  0269  1303               	bcf	3,6	;RP1=0, select bank1
  3554  026A  0822               	movf	___fladd@bexp^(0+128),w
  3555  026B  1283               	bcf	3,5	;RP0=0, select bank0
  3556  026C  1303               	bcf	3,6	;RP1=0, select bank0
  3557  026D  0266               	subwf	??___fladd,w
  3558  026E  00E8               	movwf	??___fladd+2
  3559  026F  1C03               	skipc
  3560  0270  03E9               	decf	??___fladd+3,f
  3561  0271  0869               	movf	??___fladd+3,w
  3562  0272  3A80               	xorlw	128
  3563  0273  00FF               	movwf	btemp+1
  3564  0274  3080               	movlw	128
  3565  0275  027F               	subwf	btemp+1,w
  3566  0276  1D03               	skipz
  3567  0277  2A7A               	goto	u1665
  3568  0278  301A               	movlw	26
  3569  0279  0268               	subwf	??___fladd+2,w
  3570  027A                     u1665:
  3571  027A  1C03               	skipc
  3572  027B  2A7D               	goto	u1661
  3573  027C  2A7E               	goto	u1660
  3574  027D                     u1661:
  3575  027D  2AD0               	goto	l1416
  3576  027E                     u1660:
  3577  027E                     l1402:
  3578  027E  1283               	bcf	3,5	;RP0=0, select bank0
  3579  027F  1303               	bcf	3,6	;RP1=0, select bank0
  3580  0280  0861               	movf	___fladd@b+3,w
  3581  0281  0460               	iorwf	___fladd@b+2,w
  3582  0282  045F               	iorwf	___fladd@b+1,w
  3583  0283  045E               	iorwf	___fladd@b,w
  3584  0284  1D03               	skipz
  3585  0285  2A87               	goto	u1671
  3586  0286  2A89               	goto	u1670
  3587  0287                     u1671:
  3588  0287  3001               	movlw	1
  3589  0288  2A8A               	goto	u1680
  3590  0289                     u1670:
  3591  0289  3000               	movlw	0
  3592  028A                     u1680:
  3593  028A  00E6               	movwf	??___fladd
  3594  028B  0866               	movf	??___fladd,w
  3595  028C  1683               	bsf	3,5	;RP0=1, select bank1
  3596  028D  1303               	bcf	3,6	;RP1=0, select bank1
  3597  028E  00A3               	movwf	___fladd@grs^(0+128)
  3598  028F  3000               	movlw	0
  3599  0290  1283               	bcf	3,5	;RP0=0, select bank0
  3600  0291  1303               	bcf	3,6	;RP1=0, select bank0
  3601  0292  00E1               	movwf	___fladd@b+3
  3602  0293  3000               	movlw	0
  3603  0294  00E0               	movwf	___fladd@b+2
  3604  0295  3000               	movlw	0
  3605  0296  00DF               	movwf	___fladd@b+1
  3606  0297  3000               	movlw	0
  3607  0298  00DE               	movwf	___fladd@b
  3608  0299  1683               	bsf	3,5	;RP0=1, select bank1
  3609  029A  1303               	bcf	3,6	;RP1=0, select bank1
  3610  029B  0821               	movf	___fladd@aexp^(0+128),w
  3611  029C  1283               	bcf	3,5	;RP0=0, select bank0
  3612  029D  1303               	bcf	3,6	;RP1=0, select bank0
  3613  029E  00E6               	movwf	??___fladd
  3614  029F  0866               	movf	??___fladd,w
  3615  02A0  1683               	bsf	3,5	;RP0=1, select bank1
  3616  02A1  1303               	bcf	3,6	;RP1=0, select bank1
  3617  02A2  00A2               	movwf	___fladd@bexp^(0+128)
  3618  02A3  2AD8               	goto	l445
  3619  02A4                     l447:
  3620  02A4  1C23               	btfss	___fladd@grs^(0+128),0
  3621  02A5  2AA7               	goto	u1691
  3622  02A6  2AA8               	goto	u1690
  3623  02A7                     u1691:
  3624  02A7  2AB5               	goto	l1406
  3625  02A8                     u1690:
  3626  02A8                     l1404:
  3627  02A8  0823               	movf	___fladd@grs^(0+128),w
  3628  02A9  1283               	bcf	3,5	;RP0=0, select bank0
  3629  02AA  1303               	bcf	3,6	;RP1=0, select bank0
  3630  02AB  00E6               	movwf	??___fladd
  3631  02AC  1003               	clrc
  3632  02AD  0C66               	rrf	??___fladd,w
  3633  02AE  3801               	iorlw	1
  3634  02AF  00E7               	movwf	??___fladd+1
  3635  02B0  0867               	movf	??___fladd+1,w
  3636  02B1  1683               	bsf	3,5	;RP0=1, select bank1
  3637  02B2  1303               	bcf	3,6	;RP1=0, select bank1
  3638  02B3  00A3               	movwf	___fladd@grs^(0+128)
  3639  02B4  2AB7               	goto	l1408
  3640  02B5                     l1406:
  3641  02B5  1003               	clrc
  3642  02B6  0CA3               	rrf	___fladd@grs^(0+128),f
  3643  02B7                     l1408:
  3644  02B7  1283               	bcf	3,5	;RP0=0, select bank0
  3645  02B8  1303               	bcf	3,6	;RP1=0, select bank0
  3646  02B9  1C5E               	btfss	___fladd@b,0
  3647  02BA  2ABC               	goto	u1701
  3648  02BB  2ABD               	goto	u1700
  3649  02BC                     u1701:
  3650  02BC  2AC0               	goto	l1412
  3651  02BD                     u1700:
  3652  02BD                     l1410:
  3653  02BD  1683               	bsf	3,5	;RP0=1, select bank1
  3654  02BE  1303               	bcf	3,6	;RP1=0, select bank1
  3655  02BF  17A3               	bsf	___fladd@grs^(0+128),7
  3656  02C0                     l1412:
  3657  02C0  3001               	movlw	1
  3658  02C1  1283               	bcf	3,5	;RP0=0, select bank0
  3659  02C2  00E6               	movwf	??___fladd
  3660  02C3                     u1715:
  3661  02C3  0D61               	rlf	___fladd@b+3,w
  3662  02C4  0CE1               	rrf	___fladd@b+3,f
  3663  02C5  0CE0               	rrf	___fladd@b+2,f
  3664  02C6  0CDF               	rrf	___fladd@b+1,f
  3665  02C7  0CDE               	rrf	___fladd@b,f
  3666  02C8  0BE6               	decfsz	??___fladd& (0+127),f
  3667  02C9  2AC3               	goto	u1715
  3668  02CA                     l1414:
  3669  02CA  3001               	movlw	1
  3670  02CB  00E6               	movwf	??___fladd
  3671  02CC  0866               	movf	??___fladd,w
  3672  02CD  1683               	bsf	3,5	;RP0=1, select bank1
  3673  02CE  1303               	bcf	3,6	;RP1=0, select bank1
  3674  02CF  07A2               	addwf	___fladd@bexp^(0+128),f
  3675  02D0                     l1416:
  3676  02D0  1683               	bsf	3,5	;RP0=1, select bank1
  3677  02D1  1303               	bcf	3,6	;RP1=0, select bank1
  3678  02D2  0821               	movf	___fladd@aexp^(0+128),w
  3679  02D3  0222               	subwf	___fladd@bexp^(0+128),w
  3680  02D4  1C03               	skipc
  3681  02D5  2AD7               	goto	u1721
  3682  02D6  2AD8               	goto	u1720
  3683  02D7                     u1721:
  3684  02D7  2AA4               	goto	l447
  3685  02D8                     u1720:
  3686  02D8                     l445:
  3687  02D8  1B20               	btfsc	___fladd@signs^(0+128),6
  3688  02D9  2ADB               	goto	u1731
  3689  02DA  2ADC               	goto	u1730
  3690  02DB                     u1731:
  3691  02DB  2B38               	goto	l1442
  3692  02DC                     u1730:
  3693  02DC                     l1418:
  3694  02DC  0822               	movf	___fladd@bexp^(0+128),w
  3695  02DD  1D03               	btfss	3,2
  3696  02DE  2AE0               	goto	u1741
  3697  02DF  2AE1               	goto	u1740
  3698  02E0                     u1741:
  3699  02E0  2AEC               	goto	l1424
  3700  02E1                     u1740:
  3701  02E1                     l1420:
  3702  02E1  3000               	movlw	0
  3703  02E2  1283               	bcf	3,5	;RP0=0, select bank0
  3704  02E3  1303               	bcf	3,6	;RP1=0, select bank0
  3705  02E4  00E1               	movwf	?___fladd+3
  3706  02E5  3000               	movlw	0
  3707  02E6  00E0               	movwf	?___fladd+2
  3708  02E7  3000               	movlw	0
  3709  02E8  00DF               	movwf	?___fladd+1
  3710  02E9  3000               	movlw	0
  3711  02EA  00DE               	movwf	?___fladd
  3712  02EB  2C9A               	goto	l454
  3713  02EC                     l1424:
  3714  02EC  1283               	bcf	3,5	;RP0=0, select bank0
  3715  02ED  1303               	bcf	3,6	;RP1=0, select bank0
  3716  02EE  0862               	movf	___fladd@a,w
  3717  02EF  07DE               	addwf	___fladd@b,f
  3718  02F0  0863               	movf	___fladd@a+1,w
  3719  02F1  1103               	clrz
  3720  02F2  1803               	skipnc
  3721  02F3  3E01               	addlw	1
  3722  02F4  1903               	skipnz
  3723  02F5  2AF7               	goto	u1751
  3724  02F6  07DF               	addwf	___fladd@b+1,f
  3725  02F7                     u1751:
  3726  02F7  0864               	movf	___fladd@a+2,w
  3727  02F8  1103               	clrz
  3728  02F9  1803               	skipnc
  3729  02FA  3E01               	addlw	1
  3730  02FB  1903               	skipnz
  3731  02FC  2AFE               	goto	u1752
  3732  02FD  07E0               	addwf	___fladd@b+2,f
  3733  02FE                     u1752:
  3734  02FE  0865               	movf	___fladd@a+3,w
  3735  02FF  1103               	clrz
  3736  0300  1803               	skipnc
  3737  0301  3E01               	addlw	1
  3738  0302  1903               	skipnz
  3739  0303  2B05               	goto	u1753
  3740  0304  07E1               	addwf	___fladd@b+3,f
  3741  0305                     u1753:
  3742  0305                     l1426:
  3743  0305  1C61               	btfss	___fladd@b+3,0
  3744  0306  2B08               	goto	u1761
  3745  0307  2B09               	goto	u1760
  3746  0308                     u1761:
  3747  0308  2BFE               	goto	l1476
  3748  0309                     u1760:
  3749  0309                     l1428:
  3750  0309  1683               	bsf	3,5	;RP0=1, select bank1
  3751  030A  1303               	bcf	3,6	;RP1=0, select bank1
  3752  030B  1C23               	btfss	___fladd@grs^(0+128),0
  3753  030C  2B0E               	goto	u1771
  3754  030D  2B0F               	goto	u1770
  3755  030E                     u1771:
  3756  030E  2B1C               	goto	l1432
  3757  030F                     u1770:
  3758  030F                     l1430:
  3759  030F  0823               	movf	___fladd@grs^(0+128),w
  3760  0310  1283               	bcf	3,5	;RP0=0, select bank0
  3761  0311  1303               	bcf	3,6	;RP1=0, select bank0
  3762  0312  00E6               	movwf	??___fladd
  3763  0313  1003               	clrc
  3764  0314  0C66               	rrf	??___fladd,w
  3765  0315  3801               	iorlw	1
  3766  0316  00E7               	movwf	??___fladd+1
  3767  0317  0867               	movf	??___fladd+1,w
  3768  0318  1683               	bsf	3,5	;RP0=1, select bank1
  3769  0319  1303               	bcf	3,6	;RP1=0, select bank1
  3770  031A  00A3               	movwf	___fladd@grs^(0+128)
  3771  031B  2B1E               	goto	l1434
  3772  031C                     l1432:
  3773  031C  1003               	clrc
  3774  031D  0CA3               	rrf	___fladd@grs^(0+128),f
  3775  031E                     l1434:
  3776  031E  1283               	bcf	3,5	;RP0=0, select bank0
  3777  031F  1303               	bcf	3,6	;RP1=0, select bank0
  3778  0320  1C5E               	btfss	___fladd@b,0
  3779  0321  2B23               	goto	u1781
  3780  0322  2B24               	goto	u1780
  3781  0323                     u1781:
  3782  0323  2B27               	goto	l1438
  3783  0324                     u1780:
  3784  0324                     l1436:
  3785  0324  1683               	bsf	3,5	;RP0=1, select bank1
  3786  0325  1303               	bcf	3,6	;RP1=0, select bank1
  3787  0326  17A3               	bsf	___fladd@grs^(0+128),7
  3788  0327                     l1438:
  3789  0327  3001               	movlw	1
  3790  0328  1283               	bcf	3,5	;RP0=0, select bank0
  3791  0329  00E6               	movwf	??___fladd
  3792  032A                     u1795:
  3793  032A  0D61               	rlf	___fladd@b+3,w
  3794  032B  0CE1               	rrf	___fladd@b+3,f
  3795  032C  0CE0               	rrf	___fladd@b+2,f
  3796  032D  0CDF               	rrf	___fladd@b+1,f
  3797  032E  0CDE               	rrf	___fladd@b,f
  3798  032F  0BE6               	decfsz	??___fladd& (0+127),f
  3799  0330  2B2A               	goto	u1795
  3800  0331                     l1440:
  3801  0331  3001               	movlw	1
  3802  0332  00E6               	movwf	??___fladd
  3803  0333  0866               	movf	??___fladd,w
  3804  0334  1683               	bsf	3,5	;RP0=1, select bank1
  3805  0335  1303               	bcf	3,6	;RP1=0, select bank1
  3806  0336  07A2               	addwf	___fladd@bexp^(0+128),f
  3807  0337  2BFE               	goto	l1476
  3808  0338                     l1442:
  3809  0338  1283               	bcf	3,5	;RP0=0, select bank0
  3810  0339  1303               	bcf	3,6	;RP1=0, select bank0
  3811  033A  0861               	movf	___fladd@b+3,w
  3812  033B  3A80               	xorlw	128
  3813  033C  00FF               	movwf	btemp+1
  3814  033D  0865               	movf	___fladd@a+3,w
  3815  033E  3A80               	xorlw	128
  3816  033F  027F               	subwf	btemp+1,w
  3817  0340  1D03               	skipz
  3818  0341  2B4C               	goto	u1803
  3819  0342  0864               	movf	___fladd@a+2,w
  3820  0343  0260               	subwf	___fladd@b+2,w
  3821  0344  1D03               	skipz
  3822  0345  2B4C               	goto	u1803
  3823  0346  0863               	movf	___fladd@a+1,w
  3824  0347  025F               	subwf	___fladd@b+1,w
  3825  0348  1D03               	skipz
  3826  0349  2B4C               	goto	u1803
  3827  034A  0862               	movf	___fladd@a,w
  3828  034B  025E               	subwf	___fladd@b,w
  3829  034C                     u1803:
  3830  034C  1803               	skipnc
  3831  034D  2B4F               	goto	u1801
  3832  034E  2B50               	goto	u1800
  3833  034F                     u1801:
  3834  034F  2BAC               	goto	l1452
  3835  0350                     u1800:
  3836  0350                     l1444:
  3837  0350  30FF               	movlw	255
  3838  0351  00E6               	movwf	??___fladd
  3839  0352  30FF               	movlw	255
  3840  0353  00E7               	movwf	??___fladd+1
  3841  0354  30FF               	movlw	255
  3842  0355  00E8               	movwf	??___fladd+2
  3843  0356  30FF               	movlw	255
  3844  0357  00E9               	movwf	??___fladd+3
  3845  0358  0862               	movf	___fladd@a,w
  3846  0359  00EA               	movwf	??___fladd+4
  3847  035A  0863               	movf	___fladd@a+1,w
  3848  035B  00EB               	movwf	??___fladd+5
  3849  035C  0864               	movf	___fladd@a+2,w
  3850  035D  00EC               	movwf	??___fladd+6
  3851  035E  0865               	movf	___fladd@a+3,w
  3852  035F  00ED               	movwf	??___fladd+7
  3853  0360  085E               	movf	___fladd@b,w
  3854  0361  02EA               	subwf	??___fladd+4,f
  3855  0362  085F               	movf	___fladd@b+1,w
  3856  0363  1C03               	skipc
  3857  0364  0F5F               	incfsz	___fladd@b+1,w
  3858  0365  2B67               	goto	u1811
  3859  0366  2B68               	goto	u1812
  3860  0367                     u1811:
  3861  0367  02EB               	subwf	??___fladd+5,f
  3862  0368                     u1812:
  3863  0368  0860               	movf	___fladd@b+2,w
  3864  0369  1C03               	skipc
  3865  036A  0F60               	incfsz	___fladd@b+2,w
  3866  036B  2B6D               	goto	u1813
  3867  036C  2B6E               	goto	u1814
  3868  036D                     u1813:
  3869  036D  02EC               	subwf	??___fladd+6,f
  3870  036E                     u1814:
  3871  036E  0861               	movf	___fladd@b+3,w
  3872  036F  1C03               	skipc
  3873  0370  0F61               	incfsz	___fladd@b+3,w
  3874  0371  2B73               	goto	u1815
  3875  0372  2B74               	goto	u1816
  3876  0373                     u1815:
  3877  0373  02ED               	subwf	??___fladd+7,f
  3878  0374                     u1816:
  3879  0374  086A               	movf	??___fladd+4,w
  3880  0375  07E6               	addwf	??___fladd,f
  3881  0376  086B               	movf	??___fladd+5,w
  3882  0377  1803               	skipnc
  3883  0378  0F6B               	incfsz	??___fladd+5,w
  3884  0379  2B7B               	goto	u1820
  3885  037A  2B7C               	goto	u1821
  3886  037B                     u1820:
  3887  037B  07E7               	addwf	??___fladd+1,f
  3888  037C                     u1821:
  3889  037C  086C               	movf	??___fladd+6,w
  3890  037D  1803               	skipnc
  3891  037E  0F6C               	incfsz	??___fladd+6,w
  3892  037F  2B81               	goto	u1822
  3893  0380  2B82               	goto	u1823
  3894  0381                     u1822:
  3895  0381  07E8               	addwf	??___fladd+2,f
  3896  0382                     u1823:
  3897  0382  086D               	movf	??___fladd+7,w
  3898  0383  1803               	skipnc
  3899  0384  0A6D               	incf	??___fladd+7,w
  3900  0385  07E9               	addwf	??___fladd+3,f
  3901  0386  0869               	movf	??___fladd+3,w
  3902  0387  00E1               	movwf	___fladd@b+3
  3903  0388  0868               	movf	??___fladd+2,w
  3904  0389  00E0               	movwf	___fladd@b+2
  3905  038A  0867               	movf	??___fladd+1,w
  3906  038B  00DF               	movwf	___fladd@b+1
  3907  038C  0866               	movf	??___fladd,w
  3908  038D  00DE               	movwf	___fladd@b
  3909  038E                     l1446:
  3910  038E  3080               	movlw	128
  3911  038F  00E6               	movwf	??___fladd
  3912  0390  0866               	movf	??___fladd,w
  3913  0391  1683               	bsf	3,5	;RP0=1, select bank1
  3914  0392  1303               	bcf	3,6	;RP1=0, select bank1
  3915  0393  06A0               	xorwf	___fladd@signs^(0+128),f
  3916  0394  09A3               	comf	___fladd@grs^(0+128),f
  3917  0395  0AA3               	incf	___fladd@grs^(0+128),f
  3918  0396                     l1448:
  3919  0396  0823               	movf	___fladd@grs^(0+128),w
  3920  0397  1D03               	btfss	3,2
  3921  0398  2B9A               	goto	u1831
  3922  0399  2B9B               	goto	u1830
  3923  039A                     u1831:
  3924  039A  2BBA               	goto	l462
  3925  039B                     u1830:
  3926  039B                     l1450:
  3927  039B  3001               	movlw	1
  3928  039C  1283               	bcf	3,5	;RP0=0, select bank0
  3929  039D  1303               	bcf	3,6	;RP1=0, select bank0
  3930  039E  07DE               	addwf	___fladd@b,f
  3931  039F  3000               	movlw	0
  3932  03A0  1803               	skipnc
  3933  03A1  3001               	movlw	1
  3934  03A2  07DF               	addwf	___fladd@b+1,f
  3935  03A3  3000               	movlw	0
  3936  03A4  1803               	skipnc
  3937  03A5  3001               	movlw	1
  3938  03A6  07E0               	addwf	___fladd@b+2,f
  3939  03A7  3000               	movlw	0
  3940  03A8  1803               	skipnc
  3941  03A9  3001               	movlw	1
  3942  03AA  07E1               	addwf	___fladd@b+3,f
  3943  03AB  2BBA               	goto	l462
  3944  03AC                     l1452:
  3945  03AC  0862               	movf	___fladd@a,w
  3946  03AD  02DE               	subwf	___fladd@b,f
  3947  03AE  0863               	movf	___fladd@a+1,w
  3948  03AF  1C03               	skipc
  3949  03B0  0F63               	incfsz	___fladd@a+1,w
  3950  03B1  02DF               	subwf	___fladd@b+1,f
  3951  03B2  0864               	movf	___fladd@a+2,w
  3952  03B3  1C03               	skipc
  3953  03B4  0F64               	incfsz	___fladd@a+2,w
  3954  03B5  02E0               	subwf	___fladd@b+2,f
  3955  03B6  0865               	movf	___fladd@a+3,w
  3956  03B7  1C03               	skipc
  3957  03B8  0F65               	incfsz	___fladd@a+3,w
  3958  03B9  02E1               	subwf	___fladd@b+3,f
  3959  03BA                     l462:
  3960  03BA  1283               	bcf	3,5	;RP0=0, select bank0
  3961  03BB  0861               	movf	___fladd@b+3,w
  3962  03BC  0460               	iorwf	___fladd@b+2,w
  3963  03BD  045F               	iorwf	___fladd@b+1,w
  3964  03BE  045E               	iorwf	___fladd@b,w
  3965  03BF  1D03               	skipz
  3966  03C0  2BC2               	goto	u1841
  3967  03C1  2BC3               	goto	u1840
  3968  03C2                     u1841:
  3969  03C2  2BF9               	goto	l1474
  3970  03C3                     u1840:
  3971  03C3                     l1454:
  3972  03C3  1683               	bsf	3,5	;RP0=1, select bank1
  3973  03C4  1303               	bcf	3,6	;RP1=0, select bank1
  3974  03C5  0823               	movf	___fladd@grs^(0+128),w
  3975  03C6  1D03               	btfss	3,2
  3976  03C7  2BC9               	goto	u1851
  3977  03C8  2BCA               	goto	u1850
  3978  03C9                     u1851:
  3979  03C9  2BF9               	goto	l1474
  3980  03CA                     u1850:
  3981  03CA                     l1456:
  3982  03CA  3000               	movlw	0
  3983  03CB  1283               	bcf	3,5	;RP0=0, select bank0
  3984  03CC  1303               	bcf	3,6	;RP1=0, select bank0
  3985  03CD  00E1               	movwf	?___fladd+3
  3986  03CE  3000               	movlw	0
  3987  03CF  00E0               	movwf	?___fladd+2
  3988  03D0  3000               	movlw	0
  3989  03D1  00DF               	movwf	?___fladd+1
  3990  03D2  3000               	movlw	0
  3991  03D3  00DE               	movwf	?___fladd
  3992  03D4  2C9A               	goto	l454
  3993  03D5                     l1460:
  3994  03D5  3001               	movlw	1
  3995  03D6  00E6               	movwf	??___fladd
  3996  03D7                     u1865:
  3997  03D7  1003               	clrc
  3998  03D8  0DDE               	rlf	___fladd@b,f
  3999  03D9  0DDF               	rlf	___fladd@b+1,f
  4000  03DA  0DE0               	rlf	___fladd@b+2,f
  4001  03DB  0DE1               	rlf	___fladd@b+3,f
  4002  03DC  0BE6               	decfsz	??___fladd,f
  4003  03DD  2BD7               	goto	u1865
  4004  03DE                     l1462:
  4005  03DE  1683               	bsf	3,5	;RP0=1, select bank1
  4006  03DF  1303               	bcf	3,6	;RP1=0, select bank1
  4007  03E0  1FA3               	btfss	___fladd@grs^(0+128),7
  4008  03E1  2BE3               	goto	u1871
  4009  03E2  2BE4               	goto	u1870
  4010  03E3                     u1871:
  4011  03E3  2BE7               	goto	l466
  4012  03E4                     u1870:
  4013  03E4                     l1464:
  4014  03E4  1283               	bcf	3,5	;RP0=0, select bank0
  4015  03E5  1303               	bcf	3,6	;RP1=0, select bank0
  4016  03E6  145E               	bsf	___fladd@b,0
  4017  03E7                     l466:
  4018  03E7  1683               	bsf	3,5	;RP0=1, select bank1
  4019  03E8  1303               	bcf	3,6	;RP1=0, select bank1
  4020  03E9  1C23               	btfss	___fladd@grs^(0+128),0
  4021  03EA  2BEC               	goto	u1881
  4022  03EB  2BED               	goto	u1880
  4023  03EC                     u1881:
  4024  03EC  2BF0               	goto	l1468
  4025  03ED                     u1880:
  4026  03ED                     l1466:
  4027  03ED  1403               	setc
  4028  03EE  0DA3               	rlf	___fladd@grs^(0+128),f
  4029  03EF  2BF2               	goto	l1470
  4030  03F0                     l1468:
  4031  03F0  1003               	clrc
  4032  03F1  0DA3               	rlf	___fladd@grs^(0+128),f
  4033  03F2                     l1470:
  4034  03F2  0822               	movf	___fladd@bexp^(0+128),w
  4035  03F3  1903               	btfsc	3,2
  4036  03F4  2BF6               	goto	u1891
  4037  03F5  2BF7               	goto	u1890
  4038  03F6                     u1891:
  4039  03F6  2BF9               	goto	l1474
  4040  03F7                     u1890:
  4041  03F7                     l1472:
  4042  03F7  3001               	movlw	1
  4043  03F8  02A2               	subwf	___fladd@bexp^(0+128),f
  4044  03F9                     l1474:
  4045  03F9  1283               	bcf	3,5	;RP0=0, select bank0
  4046  03FA  1FE0               	btfss	___fladd@b+2,7
  4047  03FB  2BFD               	goto	u1901
  4048  03FC  2BFE               	goto	u1900
  4049  03FD                     u1901:
  4050  03FD  2BD5               	goto	l1460
  4051  03FE                     u1900:
  4052  03FE                     l1476:
  4053  03FE  1683               	bsf	3,5	;RP0=1, select bank1
  4054  03FF  1303               	bcf	3,6	;RP1=0, select bank1
  4055  0400  01A1               	clrf	___fladd@aexp^(0+128)
  4056  0401                     l1478:
  4057  0401  1FA3               	btfss	___fladd@grs^(0+128),7
  4058  0402  2C04               	goto	u1911
  4059  0403  2C05               	goto	u1910
  4060  0404                     u1911:
  4061  0404  2C17               	goto	l1486
  4062  0405                     u1910:
  4063  0405                     l1480:
  4064  0405  0823               	movf	___fladd@grs^(0+128),w
  4065  0406  397F               	andlw	127
  4066  0407  1903               	btfsc	3,2
  4067  0408  2C0A               	goto	u1921
  4068  0409  2C0B               	goto	u1920
  4069  040A                     u1921:
  4070  040A  2C10               	goto	l472
  4071  040B                     u1920:
  4072  040B                     l1482:
  4073  040B  1683               	bsf	3,5	;RP0=1, select bank1
  4074  040C  1303               	bcf	3,6	;RP1=0, select bank1
  4075  040D  01A1               	clrf	___fladd@aexp^(0+128)
  4076  040E  0AA1               	incf	___fladd@aexp^(0+128),f
  4077  040F  2C17               	goto	l1486
  4078  0410                     l472:
  4079  0410  1283               	bcf	3,5	;RP0=0, select bank0
  4080  0411  1303               	bcf	3,6	;RP1=0, select bank0
  4081  0412  1C5E               	btfss	___fladd@b,0
  4082  0413  2C15               	goto	u1931
  4083  0414  2C16               	goto	u1930
  4084  0415                     u1931:
  4085  0415  2C17               	goto	l1486
  4086  0416                     u1930:
  4087  0416  2C0B               	goto	l1482
  4088  0417                     l1486:
  4089  0417  1683               	bsf	3,5	;RP0=1, select bank1
  4090  0418  1303               	bcf	3,6	;RP1=0, select bank1
  4091  0419  0821               	movf	___fladd@aexp^(0+128),w
  4092  041A  1903               	btfsc	3,2
  4093  041B  2C1D               	goto	u1941
  4094  041C  2C1E               	goto	u1940
  4095  041D                     u1941:
  4096  041D  2C5A               	goto	l475
  4097  041E                     u1940:
  4098  041E                     l1488:
  4099  041E  3001               	movlw	1
  4100  041F  1283               	bcf	3,5	;RP0=0, select bank0
  4101  0420  1303               	bcf	3,6	;RP1=0, select bank0
  4102  0421  07DE               	addwf	___fladd@b,f
  4103  0422  3000               	movlw	0
  4104  0423  1803               	skipnc
  4105  0424  3001               	movlw	1
  4106  0425  07DF               	addwf	___fladd@b+1,f
  4107  0426  3000               	movlw	0
  4108  0427  1803               	skipnc
  4109  0428  3001               	movlw	1
  4110  0429  07E0               	addwf	___fladd@b+2,f
  4111  042A  3000               	movlw	0
  4112  042B  1803               	skipnc
  4113  042C  3001               	movlw	1
  4114  042D  07E1               	addwf	___fladd@b+3,f
  4115  042E                     l1490:
  4116  042E  1C61               	btfss	___fladd@b+3,0
  4117  042F  2C31               	goto	u1951
  4118  0430  2C32               	goto	u1950
  4119  0431                     u1951:
  4120  0431  2C5A               	goto	l475
  4121  0432                     u1950:
  4122  0432                     l1492:
  4123  0432  085E               	movf	___fladd@b,w
  4124  0433  00E6               	movwf	??___fladd
  4125  0434  085F               	movf	___fladd@b+1,w
  4126  0435  00E7               	movwf	??___fladd+1
  4127  0436  0860               	movf	___fladd@b+2,w
  4128  0437  00E8               	movwf	??___fladd+2
  4129  0438  0861               	movf	___fladd@b+3,w
  4130  0439  00E9               	movwf	??___fladd+3
  4131  043A  3001               	movlw	1
  4132  043B  00EA               	movwf	??___fladd+4
  4133  043C                     u1965:
  4134  043C  0D69               	rlf	??___fladd+3,w
  4135  043D  0CE9               	rrf	??___fladd+3,f
  4136  043E  0CE8               	rrf	??___fladd+2,f
  4137  043F  0CE7               	rrf	??___fladd+1,f
  4138  0440  0CE6               	rrf	??___fladd,f
  4139  0441                     u1960:
  4140  0441  0BEA               	decfsz	??___fladd+4,f
  4141  0442  2C3C               	goto	u1965
  4142  0443  0869               	movf	??___fladd+3,w
  4143  0444  00E1               	movwf	___fladd@b+3
  4144  0445  0868               	movf	??___fladd+2,w
  4145  0446  00E0               	movwf	___fladd@b+2
  4146  0447  0867               	movf	??___fladd+1,w
  4147  0448  00DF               	movwf	___fladd@b+1
  4148  0449  0866               	movf	??___fladd,w
  4149  044A  00DE               	movwf	___fladd@b
  4150  044B  1683               	bsf	3,5	;RP0=1, select bank1
  4151  044C  1303               	bcf	3,6	;RP1=0, select bank1
  4152  044D  0A22               	incf	___fladd@bexp^(0+128),w
  4153  044E  1903               	btfsc	3,2
  4154  044F  2C51               	goto	u1971
  4155  0450  2C52               	goto	u1970
  4156  0451                     u1971:
  4157  0451  2C5A               	goto	l475
  4158  0452                     u1970:
  4159  0452                     l1494:
  4160  0452  3001               	movlw	1
  4161  0453  1283               	bcf	3,5	;RP0=0, select bank0
  4162  0454  1303               	bcf	3,6	;RP1=0, select bank0
  4163  0455  00E6               	movwf	??___fladd
  4164  0456  0866               	movf	??___fladd,w
  4165  0457  1683               	bsf	3,5	;RP0=1, select bank1
  4166  0458  1303               	bcf	3,6	;RP1=0, select bank1
  4167  0459  07A2               	addwf	___fladd@bexp^(0+128),f
  4168  045A                     l475:
  4169  045A  1683               	bsf	3,5	;RP0=1, select bank1
  4170  045B  1303               	bcf	3,6	;RP1=0, select bank1
  4171  045C  0A22               	incf	___fladd@bexp^(0+128),w
  4172  045D  1903               	btfsc	3,2
  4173  045E  2C60               	goto	u1981
  4174  045F  2C61               	goto	u1980
  4175  0460                     u1981:
  4176  0460  2C66               	goto	l1498
  4177  0461                     u1980:
  4178  0461                     l1496:
  4179  0461  0822               	movf	___fladd@bexp^(0+128),w
  4180  0462  1D03               	btfss	3,2
  4181  0463  2C65               	goto	u1991
  4182  0464  2C66               	goto	u1990
  4183  0465                     u1991:
  4184  0465  2C78               	goto	l1504
  4185  0466                     u1990:
  4186  0466                     l1498:
  4187  0466  3000               	movlw	0
  4188  0467  1283               	bcf	3,5	;RP0=0, select bank0
  4189  0468  1303               	bcf	3,6	;RP1=0, select bank0
  4190  0469  00E1               	movwf	___fladd@b+3
  4191  046A  3000               	movlw	0
  4192  046B  00E0               	movwf	___fladd@b+2
  4193  046C  3000               	movlw	0
  4194  046D  00DF               	movwf	___fladd@b+1
  4195  046E  3000               	movlw	0
  4196  046F  00DE               	movwf	___fladd@b
  4197  0470                     l1500:
  4198  0470  1683               	bsf	3,5	;RP0=1, select bank1
  4199  0471  1303               	bcf	3,6	;RP1=0, select bank1
  4200  0472  0822               	movf	___fladd@bexp^(0+128),w
  4201  0473  1D03               	btfss	3,2
  4202  0474  2C76               	goto	u2001
  4203  0475  2C77               	goto	u2000
  4204  0476                     u2001:
  4205  0476  2C78               	goto	l1504
  4206  0477                     u2000:
  4207  0477                     l1502:
  4208  0477  01A0               	clrf	___fladd@signs^(0+128)
  4209  0478                     l1504:
  4210  0478  1C22               	btfss	___fladd@bexp^(0+128),0
  4211  0479  2C7B               	goto	u2011
  4212  047A  2C7C               	goto	u2010
  4213  047B                     u2011:
  4214  047B  2C80               	goto	l1508
  4215  047C                     u2010:
  4216  047C                     l1506:
  4217  047C  1283               	bcf	3,5	;RP0=0, select bank0
  4218  047D  1303               	bcf	3,6	;RP1=0, select bank0
  4219  047E  17E0               	bsf	___fladd@b+2,7
  4220  047F  2C86               	goto	l483
  4221  0480                     l1508:
  4222  0480  307F               	movlw	127
  4223  0481  1283               	bcf	3,5	;RP0=0, select bank0
  4224  0482  1303               	bcf	3,6	;RP1=0, select bank0
  4225  0483  00E6               	movwf	??___fladd
  4226  0484  0866               	movf	??___fladd,w
  4227  0485  05E0               	andwf	___fladd@b+2,f
  4228  0486                     l483:
  4229  0486  1683               	bsf	3,5	;RP0=1, select bank1
  4230  0487  1303               	bcf	3,6	;RP1=0, select bank1
  4231  0488  0822               	movf	___fladd@bexp^(0+128),w
  4232  0489  1283               	bcf	3,5	;RP0=0, select bank0
  4233  048A  1303               	bcf	3,6	;RP1=0, select bank0
  4234  048B  00E6               	movwf	??___fladd
  4235  048C  1003               	clrc
  4236  048D  0C66               	rrf	??___fladd,w
  4237  048E  00E7               	movwf	??___fladd+1
  4238  048F  0867               	movf	??___fladd+1,w
  4239  0490  00E1               	movwf	___fladd@b+3
  4240  0491                     l1510:
  4241  0491  1683               	bsf	3,5	;RP0=1, select bank1
  4242  0492  1303               	bcf	3,6	;RP1=0, select bank1
  4243  0493  1FA0               	btfss	___fladd@signs^(0+128),7
  4244  0494  2C96               	goto	u2021
  4245  0495  2C97               	goto	u2020
  4246  0496                     u2021:
  4247  0496  2C9A               	goto	l484
  4248  0497                     u2020:
  4249  0497                     l1512:
  4250  0497  1283               	bcf	3,5	;RP0=0, select bank0
  4251  0498  1303               	bcf	3,6	;RP1=0, select bank0
  4252  0499  17E1               	bsf	___fladd@b+3,7
  4253  049A                     l484:
  4254  049A                     l454:
  4255  049A  0008               	return
  4256  049B                     __end_of___fladd:
  4257                           
  4258                           	psect	text8
  4259  0025                     __ptext8:	
  4260 ;; *************** function _readADC *****************
  4261 ;; Defined at:
  4262 ;;		line 32 in file "batch.c"
  4263 ;; Parameters:    Size  Location     Type
  4264 ;;  ADCpin          1    wreg     unsigned char 
  4265 ;; Auto vars:     Size  Location     Type
  4266 ;;  ADCpin          1    8[COMMON] unsigned char 
  4267 ;;  res             2    6[COMMON] int 
  4268 ;; Return value:  Size  Location     Type
  4269 ;;                  2    0[COMMON] int 
  4270 ;; Registers used:
  4271 ;;		wreg, btemp+1
  4272 ;; Tracked objects:
  4273 ;;		On entry : 0/0
  4274 ;;		On exit  : 0/0
  4275 ;;		Unchanged: 0/0
  4276 ;; Data sizes:     COMMON   BANK0   BANK1   BANK3   BANK2
  4277 ;;      Params:         2       0       0       0       0
  4278 ;;      Locals:         3       0       0       0       0
  4279 ;;      Temps:          4       0       0       0       0
  4280 ;;      Totals:         9       0       0       0       0
  4281 ;;Total ram usage:        9 bytes
  4282 ;; Hardware stack levels used:    1
  4283 ;; This function calls:
  4284 ;;		Nothing
  4285 ;; This function is called by:
  4286 ;;		_main
  4287 ;; This function uses a non-reentrant model
  4288 ;;
  4289                           
  4290                           
  4291                           ;psect for function _readADC
  4292  0025                     _readADC:
  4293                           
  4294                           ;incstack = 0
  4295                           ; Regs used in _readADC: [wreg+btemp+1]
  4296                           ;readADC@ADCpin stored from wreg
  4297  0025  00F8               	movwf	readADC@ADCpin
  4298  0026                     l1812:
  4299                           
  4300                           ;batch.c: 33:     TRISC1 = 0;
  4301  0026  1878               	btfsc	readADC@ADCpin,0
  4302  0027  2829               	goto	u2691
  4303  0028  282D               	goto	u2690
  4304  0029                     u2691:
  4305  0029  1283               	bcf	3,5	;RP0=0, select bank0
  4306  002A  1303               	bcf	3,6	;RP1=0, select bank0
  4307  002B  159F               	bsf	31,3	;volatile
  4308  002C  2830               	goto	u2704
  4309  002D                     u2690:
  4310  002D  1283               	bcf	3,5	;RP0=0, select bank0
  4311  002E  1303               	bcf	3,6	;RP1=0, select bank0
  4312  002F  119F               	bcf	31,3	;volatile
  4313  0030                     u2704:
  4314                           
  4315                           ;batch.c: 34:     TRISC2 = 0;
  4316  0030  121F               	bcf	31,4	;volatile
  4317                           
  4318                           ;batch.c: 35:     ADCON1 = 0b01000010;
  4319  0031  129F               	bcf	31,5	;volatile
  4320                           
  4321                           ;batch.c: 36:     ADCS0 = 0;
  4322  0032  141F               	bsf	31,0	;volatile
  4323  0033                     l1814:
  4324                           
  4325                           ;batch.c: 37:     ADCS1 = 0;
  4326  0033  3042               	movlw	66
  4327  0034  00F2               	movwf	??_readADC
  4328  0035                     u2877:
  4329  0035  0BF2               	decfsz	??_readADC,f
  4330  0036  2835               	goto	u2877
  4331  0037  0000               	nop
  4332  0038                     l1816:
  4333                           
  4334                           ;batch.c: 38: 
  4335  0038  1283               	bcf	3,5	;RP0=0, select bank0
  4336  0039  1303               	bcf	3,6	;RP1=0, select bank0
  4337  003A  151F               	bsf	31,2	;volatile
  4338  003B                     l51:	
  4339                           ;batch.c: 39: 
  4340                           
  4341  003B  191F               	btfsc	31,2	;volatile
  4342  003C  283E               	goto	u2711
  4343  003D  283F               	goto	u2710
  4344  003E                     u2711:
  4345  003E  283B               	goto	l51
  4346  003F                     u2710:
  4347  003F                     l53:
  4348                           
  4349                           ;batch.c: 40:     while(1){
  4350  003F  101F               	bcf	31,0	;volatile
  4351  0040                     l1818:
  4352                           
  4353                           ;batch.c: 41: 
  4354  0040  081E               	movf	30,w	;volatile
  4355  0041  00F2               	movwf	??_readADC
  4356  0042  01F3               	clrf	??_readADC+1
  4357  0043  3007               	movlw	7
  4358  0044  00FF               	movwf	btemp+1
  4359  0045                     u2725:
  4360  0045  1003               	clrc
  4361  0046  0DF2               	rlf	??_readADC,f
  4362  0047  0DF3               	rlf	??_readADC+1,f
  4363  0048  0BFF               	decfsz	btemp+1,f
  4364  0049  2845               	goto	u2725
  4365  004A  1683               	bsf	3,5	;RP0=1, select bank1
  4366  004B  1303               	bcf	3,6	;RP1=0, select bank1
  4367  004C  081E               	movf	30,w	;volatile
  4368  004D  0772               	addwf	??_readADC,w
  4369  004E  00F4               	movwf	??_readADC+2
  4370  004F  0873               	movf	??_readADC+1,w
  4371  0050  1803               	skipnc
  4372  0051  0A73               	incf	??_readADC+1,w
  4373  0052  00F5               	movwf	??_readADC+3
  4374  0053  0874               	movf	??_readADC+2,w
  4375  0054  00F6               	movwf	readADC@res
  4376  0055  0875               	movf	??_readADC+3,w
  4377  0056  00F7               	movwf	readADC@res+1
  4378  0057                     l1820:
  4379                           
  4380                           ;batch.c: 42: 
  4381  0057  0877               	movf	readADC@res+1,w
  4382  0058  00F1               	movwf	?_readADC+1
  4383  0059  0876               	movf	readADC@res,w
  4384  005A  00F0               	movwf	?_readADC
  4385  005B                     l54:
  4386  005B  0008               	return
  4387  005C                     __end_of_readADC:
  4388                           
  4389                           	psect	text9
  4390  0D67                     __ptext9:	
  4391 ;; *************** function ___xxtofl *****************
  4392 ;; Defined at:
  4393 ;;		line 10 in file "C:\Program Files\Microchip\xc8\v2.30\pic\sources\c90\common\xxtofl.c"
  4394 ;; Parameters:    Size  Location     Type
  4395 ;;  sign            1    wreg     unsigned char 
  4396 ;;  val             4    9[COMMON] long 
  4397 ;; Auto vars:     Size  Location     Type
  4398 ;;  sign            1    4[BANK0 ] unsigned char 
  4399 ;;  arg             4    6[BANK0 ] unsigned long 
  4400 ;;  exp             1    5[BANK0 ] unsigned char 
  4401 ;; Return value:  Size  Location     Type
  4402 ;;                  4    9[COMMON] unsigned char 
  4403 ;; Registers used:
  4404 ;;		wreg, status,2, status,0
  4405 ;; Tracked objects:
  4406 ;;		On entry : 0/0
  4407 ;;		On exit  : 0/0
  4408 ;;		Unchanged: 0/0
  4409 ;; Data sizes:     COMMON   BANK0   BANK1   BANK3   BANK2
  4410 ;;      Params:         4       0       0       0       0
  4411 ;;      Locals:         0       6       0       0       0
  4412 ;;      Temps:          0       4       0       0       0
  4413 ;;      Totals:         4      10       0       0       0
  4414 ;;Total ram usage:       14 bytes
  4415 ;; Hardware stack levels used:    1
  4416 ;; This function calls:
  4417 ;;		Nothing
  4418 ;; This function is called by:
  4419 ;;		_main
  4420 ;; This function uses a non-reentrant model
  4421 ;;
  4422                           
  4423                           
  4424                           ;psect for function ___xxtofl
  4425  0D67                     ___xxtofl:
  4426                           
  4427                           ;incstack = 0
  4428                           ; Regs used in ___xxtofl: [wreg+status,2+status,0]
  4429                           ;___xxtofl@sign stored from wreg
  4430  0D67  1283               	bcf	3,5	;RP0=0, select bank0
  4431  0D68  1303               	bcf	3,6	;RP1=0, select bank0
  4432  0D69  00A4               	movwf	___xxtofl@sign
  4433  0D6A                     l1824:
  4434  0D6A  0824               	movf	___xxtofl@sign,w
  4435  0D6B  1903               	btfsc	3,2
  4436  0D6C  2D6E               	goto	u2731
  4437  0D6D  2D6F               	goto	u2730
  4438  0D6E                     u2731:
  4439  0D6E  2D83               	goto	l1830
  4440  0D6F                     u2730:
  4441  0D6F                     l1826:
  4442  0D6F  1FFC               	btfss	___xxtofl@val+3,7
  4443  0D70  2D72               	goto	u2741
  4444  0D71  2D73               	goto	u2740
  4445  0D72                     u2741:
  4446  0D72  2D83               	goto	l1830
  4447  0D73                     u2740:
  4448  0D73                     l1828:
  4449  0D73  0979               	comf	___xxtofl@val,w
  4450  0D74  00A6               	movwf	___xxtofl@arg
  4451  0D75  097A               	comf	___xxtofl@val+1,w
  4452  0D76  00A7               	movwf	___xxtofl@arg+1
  4453  0D77  097B               	comf	___xxtofl@val+2,w
  4454  0D78  00A8               	movwf	___xxtofl@arg+2
  4455  0D79  097C               	comf	___xxtofl@val+3,w
  4456  0D7A  00A9               	movwf	___xxtofl@arg+3
  4457  0D7B  0AA6               	incf	___xxtofl@arg,f
  4458  0D7C  1903               	skipnz
  4459  0D7D  0AA7               	incf	___xxtofl@arg+1,f
  4460  0D7E  1903               	skipnz
  4461  0D7F  0AA8               	incf	___xxtofl@arg+2,f
  4462  0D80  1903               	skipnz
  4463  0D81  0AA9               	incf	___xxtofl@arg+3,f
  4464  0D82  2D8B               	goto	l581
  4465  0D83                     l1830:
  4466  0D83  087C               	movf	___xxtofl@val+3,w
  4467  0D84  00A9               	movwf	___xxtofl@arg+3
  4468  0D85  087B               	movf	___xxtofl@val+2,w
  4469  0D86  00A8               	movwf	___xxtofl@arg+2
  4470  0D87  087A               	movf	___xxtofl@val+1,w
  4471  0D88  00A7               	movwf	___xxtofl@arg+1
  4472  0D89  0879               	movf	___xxtofl@val,w
  4473  0D8A  00A6               	movwf	___xxtofl@arg
  4474  0D8B                     l581:
  4475  0D8B  087C               	movf	___xxtofl@val+3,w
  4476  0D8C  047B               	iorwf	___xxtofl@val+2,w
  4477  0D8D  047A               	iorwf	___xxtofl@val+1,w
  4478  0D8E  0479               	iorwf	___xxtofl@val,w
  4479  0D8F  1D03               	skipz
  4480  0D90  2D92               	goto	u2751
  4481  0D91  2D93               	goto	u2750
  4482  0D92                     u2751:
  4483  0D92  2D9C               	goto	l1836
  4484  0D93                     u2750:
  4485  0D93                     l1832:
  4486  0D93  3000               	movlw	0
  4487  0D94  00FC               	movwf	?___xxtofl+3
  4488  0D95  3000               	movlw	0
  4489  0D96  00FB               	movwf	?___xxtofl+2
  4490  0D97  3000               	movlw	0
  4491  0D98  00FA               	movwf	?___xxtofl+1
  4492  0D99  3000               	movlw	0
  4493  0D9A  00F9               	movwf	?___xxtofl
  4494  0D9B  2E22               	goto	l583
  4495  0D9C                     l1836:
  4496  0D9C  3096               	movlw	150
  4497  0D9D  00A0               	movwf	??___xxtofl
  4498  0D9E  0820               	movf	??___xxtofl,w
  4499  0D9F  00A5               	movwf	___xxtofl@exp
  4500  0DA0  2DAE               	goto	l1840
  4501  0DA1                     l1838:
  4502  0DA1  3001               	movlw	1
  4503  0DA2  00A0               	movwf	??___xxtofl
  4504  0DA3  0820               	movf	??___xxtofl,w
  4505  0DA4  07A5               	addwf	___xxtofl@exp,f
  4506  0DA5  3001               	movlw	1
  4507  0DA6                     u2765:
  4508  0DA6  1003               	clrc
  4509  0DA7  0CA9               	rrf	___xxtofl@arg+3,f
  4510  0DA8  0CA8               	rrf	___xxtofl@arg+2,f
  4511  0DA9  0CA7               	rrf	___xxtofl@arg+1,f
  4512  0DAA  0CA6               	rrf	___xxtofl@arg,f
  4513  0DAB  3EFF               	addlw	-1
  4514  0DAC  1D03               	skipz
  4515  0DAD  2DA6               	goto	u2765
  4516  0DAE                     l1840:
  4517  0DAE  30FE               	movlw	254
  4518  0DAF  0529               	andwf	___xxtofl@arg+3,w
  4519  0DB0  1D03               	btfss	3,2
  4520  0DB1  2DB3               	goto	u2771
  4521  0DB2  2DB4               	goto	u2770
  4522  0DB3                     u2771:
  4523  0DB3  2DA1               	goto	l1838
  4524  0DB4                     u2770:
  4525  0DB4  2DD0               	goto	l587
  4526  0DB5                     l1842:
  4527  0DB5  3001               	movlw	1
  4528  0DB6  00A0               	movwf	??___xxtofl
  4529  0DB7  0820               	movf	??___xxtofl,w
  4530  0DB8  07A5               	addwf	___xxtofl@exp,f
  4531  0DB9                     l1844:
  4532  0DB9  3001               	movlw	1
  4533  0DBA  07A6               	addwf	___xxtofl@arg,f
  4534  0DBB  3000               	movlw	0
  4535  0DBC  1803               	skipnc
  4536  0DBD  3001               	movlw	1
  4537  0DBE  07A7               	addwf	___xxtofl@arg+1,f
  4538  0DBF  3000               	movlw	0
  4539  0DC0  1803               	skipnc
  4540  0DC1  3001               	movlw	1
  4541  0DC2  07A8               	addwf	___xxtofl@arg+2,f
  4542  0DC3  3000               	movlw	0
  4543  0DC4  1803               	skipnc
  4544  0DC5  3001               	movlw	1
  4545  0DC6  07A9               	addwf	___xxtofl@arg+3,f
  4546  0DC7                     l1846:
  4547  0DC7  3001               	movlw	1
  4548  0DC8                     u2785:
  4549  0DC8  1003               	clrc
  4550  0DC9  0CA9               	rrf	___xxtofl@arg+3,f
  4551  0DCA  0CA8               	rrf	___xxtofl@arg+2,f
  4552  0DCB  0CA7               	rrf	___xxtofl@arg+1,f
  4553  0DCC  0CA6               	rrf	___xxtofl@arg,f
  4554  0DCD  3EFF               	addlw	-1
  4555  0DCE  1D03               	skipz
  4556  0DCF  2DC8               	goto	u2785
  4557  0DD0                     l587:
  4558  0DD0  30FF               	movlw	255
  4559  0DD1  0529               	andwf	___xxtofl@arg+3,w
  4560  0DD2  1D03               	btfss	3,2
  4561  0DD3  2DD5               	goto	u2791
  4562  0DD4  2DD6               	goto	u2790
  4563  0DD5                     u2791:
  4564  0DD5  2DB5               	goto	l1842
  4565  0DD6                     u2790:
  4566  0DD6  2DE2               	goto	l1850
  4567  0DD7                     l1848:
  4568  0DD7  3001               	movlw	1
  4569  0DD8  02A5               	subwf	___xxtofl@exp,f
  4570  0DD9  3001               	movlw	1
  4571  0DDA  00A0               	movwf	??___xxtofl
  4572  0DDB                     u2805:
  4573  0DDB  1003               	clrc
  4574  0DDC  0DA6               	rlf	___xxtofl@arg,f
  4575  0DDD  0DA7               	rlf	___xxtofl@arg+1,f
  4576  0DDE  0DA8               	rlf	___xxtofl@arg+2,f
  4577  0DDF  0DA9               	rlf	___xxtofl@arg+3,f
  4578  0DE0  0BA0               	decfsz	??___xxtofl,f
  4579  0DE1  2DDB               	goto	u2805
  4580  0DE2                     l1850:
  4581  0DE2  1BA8               	btfsc	___xxtofl@arg+2,7
  4582  0DE3  2DE5               	goto	u2811
  4583  0DE4  2DE6               	goto	u2810
  4584  0DE5                     u2811:
  4585  0DE5  2DEC               	goto	l594
  4586  0DE6                     u2810:
  4587  0DE6                     l1852:
  4588  0DE6  3002               	movlw	2
  4589  0DE7  0225               	subwf	___xxtofl@exp,w
  4590  0DE8  1803               	skipnc
  4591  0DE9  2DEB               	goto	u2821
  4592  0DEA  2DEC               	goto	u2820
  4593  0DEB                     u2821:
  4594  0DEB  2DD7               	goto	l1848
  4595  0DEC                     u2820:
  4596  0DEC                     l594:
  4597  0DEC  1825               	btfsc	___xxtofl@exp,0
  4598  0DED  2DEF               	goto	u2831
  4599  0DEE  2DF0               	goto	u2830
  4600  0DEF                     u2831:
  4601  0DEF  2DF8               	goto	l595
  4602  0DF0                     u2830:
  4603  0DF0                     l1854:
  4604  0DF0  30FF               	movlw	255
  4605  0DF1  05A6               	andwf	___xxtofl@arg,f
  4606  0DF2  30FF               	movlw	255
  4607  0DF3  05A7               	andwf	___xxtofl@arg+1,f
  4608  0DF4  307F               	movlw	127
  4609  0DF5  05A8               	andwf	___xxtofl@arg+2,f
  4610  0DF6  30FF               	movlw	255
  4611  0DF7  05A9               	andwf	___xxtofl@arg+3,f
  4612  0DF8                     l595:
  4613  0DF8  1003               	clrc
  4614  0DF9  0CA5               	rrf	___xxtofl@exp,f
  4615  0DFA                     l1856:
  4616  0DFA  0825               	movf	___xxtofl@exp,w
  4617  0DFB  00A0               	movwf	??___xxtofl
  4618  0DFC  01A1               	clrf	??___xxtofl+1
  4619  0DFD  01A2               	clrf	??___xxtofl+2
  4620  0DFE  01A3               	clrf	??___xxtofl+3
  4621  0DFF  3018               	movlw	24
  4622  0E00                     u2845:
  4623  0E00  1003               	clrc
  4624  0E01  0DA0               	rlf	??___xxtofl,f
  4625  0E02  0DA1               	rlf	??___xxtofl+1,f
  4626  0E03  0DA2               	rlf	??___xxtofl+2,f
  4627  0E04  0DA3               	rlf	??___xxtofl+3,f
  4628  0E05                     u2840:
  4629  0E05  3EFF               	addlw	-1
  4630  0E06  1D03               	skipz
  4631  0E07  2E00               	goto	u2845
  4632  0E08  0820               	movf	??___xxtofl,w
  4633  0E09  04A6               	iorwf	___xxtofl@arg,f
  4634  0E0A  0821               	movf	??___xxtofl+1,w
  4635  0E0B  04A7               	iorwf	___xxtofl@arg+1,f
  4636  0E0C  0822               	movf	??___xxtofl+2,w
  4637  0E0D  04A8               	iorwf	___xxtofl@arg+2,f
  4638  0E0E  0823               	movf	??___xxtofl+3,w
  4639  0E0F  04A9               	iorwf	___xxtofl@arg+3,f
  4640  0E10                     l1858:
  4641  0E10  0824               	movf	___xxtofl@sign,w
  4642  0E11  1903               	btfsc	3,2
  4643  0E12  2E14               	goto	u2851
  4644  0E13  2E15               	goto	u2850
  4645  0E14                     u2851:
  4646  0E14  2E1A               	goto	l1864
  4647  0E15                     u2850:
  4648  0E15                     l1860:
  4649  0E15  1FFC               	btfss	___xxtofl@val+3,7
  4650  0E16  2E18               	goto	u2861
  4651  0E17  2E19               	goto	u2860
  4652  0E18                     u2861:
  4653  0E18  2E1A               	goto	l1864
  4654  0E19                     u2860:
  4655  0E19                     l1862:
  4656  0E19  17A9               	bsf	___xxtofl@arg+3,7
  4657  0E1A                     l1864:
  4658  0E1A  0829               	movf	___xxtofl@arg+3,w
  4659  0E1B  00FC               	movwf	?___xxtofl+3
  4660  0E1C  0828               	movf	___xxtofl@arg+2,w
  4661  0E1D  00FB               	movwf	?___xxtofl+2
  4662  0E1E  0827               	movf	___xxtofl@arg+1,w
  4663  0E1F  00FA               	movwf	?___xxtofl+1
  4664  0E20  0826               	movf	___xxtofl@arg,w
  4665  0E21  00F9               	movwf	?___xxtofl
  4666  0E22                     l583:
  4667  0E22  0008               	return
  4668  0E23                     __end_of___xxtofl:
  4669  007E                     btemp	set	126	;btemp
  4670  007E                     wtemp0	set	126
  4671                           
  4672                           	psect	config
  4673                           
  4674                           ;Config register CONFIG @ 0x2007
  4675                           ;	Oscillator Selection bits
  4676                           ;	FOSC = HS, HS oscillator
  4677                           ;	Watchdog Timer Enable bit
  4678                           ;	WDTE = OFF, WDT disabled
  4679                           ;	Power-up Timer Enable bit
  4680                           ;	PWRTE = OFF, PWRT disabled
  4681                           ;	Brown-out Reset Enable bit
  4682                           ;	BOREN = OFF, BOR disabled
  4683                           ;	Low-Voltage (Single-Supply) In-Circuit Serial Programming Enable bit
  4684                           ;	LVP = OFF, RB3 is digital I/O, HV on MCLR must be used for programming
  4685                           ;	Data EEPROM Memory Code Protection bit
  4686                           ;	CPD = OFF, Data EEPROM code protection off
  4687                           ;	Flash Program Memory Write Enable bits
  4688                           ;	WRT = OFF, Write protection off; all program memory may be written to by EECON control
  4689                           ;	In-Circuit Debugger Mode bit
  4690                           ;	DEBUG = 0x1, unprogrammed default
  4691                           ;	Flash Program Memory Code Protection bit
  4692                           ;	CP = OFF, Code protection off
  4693  2007                     	org	8199
  4694  2007  3F3A               	dw	16186

Data Sizes:
    Strings     0
    Constant    0
    Data        0
    BSS         0
    Persistent  8
    Stack       0

Auto Spaces:
    Space          Size  Autos    Used
    COMMON           14     13      13
    BANK0            80     80      80
    BANK1            80     27      35
    BANK3            96      0       0
    BANK2            96      0       0

Pointer List with Targets:

    None.

Critical Paths under _main in COMMON

    _main->___xxtofl
    ___flmul->___xxtofl
    ___xxtofl->_readADC

Critical Paths under _main in BANK0

    _startPWM2->___fltol
    _startPWM1->___fltol
    ___fltol->___fladd
    ___flmul->___xxtofl
    ___fldiv->___flmul
    ___fladd->___fldiv

Critical Paths under _main in BANK1

    _main->_startPWM1
    _main->_startPWM2
    _startPWM2->___fltol
    _startPWM1->___fltol
    ___fltol->___fladd

Critical Paths under _main in BANK3

    None.

Critical Paths under _main in BANK2

    None.

Call Graph Tables:

 ---------------------------------------------------------------------------------
 (Depth) Function   	        Calls       Base Space   Used Autos Params    Refs
 ---------------------------------------------------------------------------------
 (0) _main                                                 4     4      0   19103
                                             23 BANK1      4     4      0
                            ___flmul
                           ___xxtofl
                            _readADC
                          _startPWM1
                          _startPWM2
 ---------------------------------------------------------------------------------
 (1) _startPWM2                                           10     4      6    7768
                                             13 BANK1     10     4      6
                            ___fladd
                            ___fldiv
                            ___flmul
                            ___fltol
 ---------------------------------------------------------------------------------
 (1) _startPWM1                                           10     4      6    7768
                                             13 BANK1     10     4      6
                            ___fladd
                            ___fldiv
                            ___flmul
                            ___fltol
 ---------------------------------------------------------------------------------
 (2) ___fltol                                             11     7      4     381
                                             78 BANK0      2     2      0
                                              4 BANK1      9     5      4
                            ___fladd (ARG)
                            ___fldiv (ARG)
                            ___flmul (ARG)
 ---------------------------------------------------------------------------------
 (2) ___flmul                                             26    18      8    3025
                                             10 BANK0     26    18      8
                          __Umul8_16
                           ___xxtofl (ARG)
                            _readADC (ARG)
 ---------------------------------------------------------------------------------
 (3) __Umul8_16                                            9     7      2     799
                                              0 COMMON     9     7      2
 ---------------------------------------------------------------------------------
 (2) ___fldiv                                             26    18      8    1729
                                             36 BANK0     26    18      8
                            ___flmul (ARG)
 ---------------------------------------------------------------------------------
 (2) ___fladd                                             20    12      8    2414
                                             62 BANK0     16     8      8
                                              0 BANK1      4     4      0
                            ___fldiv (ARG)
                            ___flmul (ARG)
 ---------------------------------------------------------------------------------
 (1) _readADC                                              9     7      2      45
                                              0 COMMON     9     7      2
 ---------------------------------------------------------------------------------
 (1) ___xxtofl                                            14    10      4     474
                                              9 COMMON     4     0      4
                                              0 BANK0     10    10      0
                            _readADC (ARG)
 ---------------------------------------------------------------------------------
 Estimated maximum stack depth 3
 ---------------------------------------------------------------------------------

 Call Graph Graphs:

 _main (ROOT)
   ___flmul
     __Umul8_16
     ___xxtofl (ARG)
       _readADC (ARG)
     _readADC (ARG)
   ___xxtofl
     _readADC (ARG)
   _readADC
   _startPWM1
     ___fladd
       ___fldiv (ARG)
         ___flmul (ARG)
           __Umul8_16
           ___xxtofl (ARG)
             _readADC (ARG)
           _readADC (ARG)
       ___flmul (ARG)
         __Umul8_16
         ___xxtofl (ARG)
           _readADC (ARG)
         _readADC (ARG)
     ___fldiv
       ___flmul (ARG)
         __Umul8_16
         ___xxtofl (ARG)
           _readADC (ARG)
         _readADC (ARG)
     ___flmul
       __Umul8_16
       ___xxtofl (ARG)
         _readADC (ARG)
       _readADC (ARG)
     ___fltol
       ___fladd (ARG)
         ___fldiv (ARG)
           ___flmul (ARG)
             __Umul8_16
             ___xxtofl (ARG)
               _readADC (ARG)
             _readADC (ARG)
         ___flmul (ARG)
           __Umul8_16
           ___xxtofl (ARG)
             _readADC (ARG)
           _readADC (ARG)
       ___fldiv (ARG)
         ___flmul (ARG)
           __Umul8_16
           ___xxtofl (ARG)
             _readADC (ARG)
           _readADC (ARG)
       ___flmul (ARG)
         __Umul8_16
         ___xxtofl (ARG)
           _readADC (ARG)
         _readADC (ARG)
   _startPWM2
     ___fladd
       ___fldiv (ARG)
         ___flmul (ARG)
           __Umul8_16
           ___xxtofl (ARG)
             _readADC (ARG)
           _readADC (ARG)
       ___flmul (ARG)
         __Umul8_16
         ___xxtofl (ARG)
           _readADC (ARG)
         _readADC (ARG)
     ___fldiv
       ___flmul (ARG)
         __Umul8_16
         ___xxtofl (ARG)
           _readADC (ARG)
         _readADC (ARG)
     ___flmul
       __Umul8_16
       ___xxtofl (ARG)
         _readADC (ARG)
       _readADC (ARG)
     ___fltol
       ___fladd (ARG)
         ___fldiv (ARG)
           ___flmul (ARG)
             __Umul8_16
             ___xxtofl (ARG)
               _readADC (ARG)
             _readADC (ARG)
         ___flmul (ARG)
           __Umul8_16
           ___xxtofl (ARG)
             _readADC (ARG)
           _readADC (ARG)
       ___fldiv (ARG)
         ___flmul (ARG)
           __Umul8_16
           ___xxtofl (ARG)
             _readADC (ARG)
           _readADC (ARG)
       ___flmul (ARG)
         __Umul8_16
         ___xxtofl (ARG)
           _readADC (ARG)
         _readADC (ARG)

 Address spaces:
Name               Size   Autos  Total    Cost      Usage
BITCOMMON            E      0       0       0        0.0%
EEDATA             100      0       0       0        0.0%
NULL                 0      0       0       0        0.0%
CODE                 0      0       0       0        0.0%
COMMON               E      D       D       1       92.9%
BITSFR0              0      0       0       1        0.0%
SFR0                 0      0       0       1        0.0%
BITSFR1              0      0       0       2        0.0%
SFR1                 0      0       0       2        0.0%
STACK                0      0       0       2        0.0%
ABS                  0      0      80       3        0.0%
BITBANK0            50      0       0       4        0.0%
BITSFR3              0      0       0       4        0.0%
SFR3                 0      0       0       4        0.0%
BANK0               50     50      50       5      100.0%
BITSFR2              0      0       0       5        0.0%
SFR2                 0      0       0       5        0.0%
BITBANK1            50      0       0       6        0.0%
BANK1               50     1B      23       7       43.8%
BITBANK3            60      0       0       8        0.0%
BANK3               60      0       0       9        0.0%
BITBANK2            60      0       0      10        0.0%
BANK2               60      0       0      11        0.0%
DATA                 0      0      80      12        0.0%


Microchip Technology PIC Macro Assembler V2.30 build 20200825195618 
Symbol Table                                                                                   Thu Jun 23 11:33:30 2022

           ___fldiv@aexp 005D             ___fldiv@bexp 005C             ___fldiv@sign 0055  
                     l51 003B                       l53 003F                       l45 0CAD  
                     l54 005B                       l48 0D66      __Umul8_16@word_mpld 0076  
                    l341 0BDD                      l334 0BF4                      l344 0BF4  
                    l441 01E0                      l521 0FF3                      l513 0F71  
                    l445 02D8                      l462 03BA                      l454 049A  
                    l447 02A4                      l519 0FE3                      l543 0767  
                    l472 0410                      l537 07FB                      l466 03E7  
                    l483 0486                      l475 045A                      l484 049A  
                    l556 0B50                      l581 0D8B                      l549 07EF  
                    l558 0B62                      l583 0E22                      l497 0E7F  
                    l594 0DEC                      l595 0DF8                      l587 0DD0  
                    l499 0FFF                      _PR2 0092             ___flmul@aexp 003C  
           ___flmul@bexp 003D             ___flmul@sign 0037             ___flmul@temp 0042  
           ___flmul@prod 003E             ___fltol@exp1 006F                     l1300 0BA9  
                   l1400 0261                     l1320 015B                     l1410 02BD  
                   l1402 027E                     l1330 017E                     l1322 0164  
                   l1314 0BCE                     l1306 0BB1                     l1500 0470  
                   l1420 02E1                     l1412 02C0                     l1404 02A8  
                   l1340 019B                     l1332 0183                     l1324 016E  
                   l1316 0BE2                     l1308 0BC7                     l1510 0491  
                   l1502 0477                     l1430 030F                     l1414 02CA  
                   l1406 02B5                     l1350 01B9                     l1342 01A2  
                   l1334 018D                     l1326 0174                     l1270 0B3D  
                   l1318 0BE7                     l1512 0497                     l1504 0478  
                   l1440 0331                     l1432 031C                     l1424 02EC  
                   l1408 02B7                     l1416 02D0                     l1360 01D4  
                   l1352 01BC                     l1344 01A8                     l1336 018F  
                   l1328 0177                     l1600 0F32                     l1520 0E34  
                   l1280 0B5E                     l1272 0B3F                     l1506 047C  
                   l1450 039B                     l1434 031E                     l1426 0305  
                   l1418 02DC                     l1442 0338                     l1370 01FC  
                   l1354 01C3                     l1362 01D6                     l1346 01A9  
                   l1338 0191                     l1610 0F4B                     l1602 0F34  
                   l1530 0E48                     l1522 0E35                     l1514 0E23  
                   l1274 0B46                     l1290 0B7D                     l1508 0480  
                   l1460 03D5                     l1444 0350                     l1452 03AC  
                   l1436 0324                     l1428 0309                     l1380 0222  
                   l1372 0204                     l1364 01E8                     l1356 01C8  
                   l1348 01B3                     l1620 0F6E                     l1604 0F3D  
                   l1612 0F51                     l1540 0E61                     l1524 0E3A  
                   l1532 0E4A                     l1516 0E2A                     l1276 0B4A  
                   l1700 0508                     l1292 0B96                     l1284 0B63  
                   l1470 03F2                     l1462 03DE                     l1454 03C3  
                   l1446 038E                     l1438 0327                     l1390 0242  
                   l1382 0228                     l1374 020C                     l1366 01EC  
                   l1358 01D2                     l1630 0F8D                     l1614 0F55  
                   l1606 0F41                     l1550 0E75                     l1542 0E62  
                   l1534 0E52                     l1526 0E3F                     l1518 0E30  
                   l1278 0B59                     l1710 058A                     l1702 0518  
                   l1294 0B99                     l1286 0B72                     l1480 0405  
                   l1472 03F7                     l1464 03E4                     l1456 03CA  
                   l1448 0396                     l1392 024A                     l1384 022E  
                   l1376 0214                     l1368 01F4                     l1640 0FD6  
                   l1632 0FA6                     l1624 0F76                     l1616 0F56  
                   l1608 0F42                     l1544 0E67                     l1552 0E77  
                   l1536 0E57                     l1528 0E47                     l1720 05F8  
                   l1712 05A6                     l1704 0525                     l1296 0BA1  
                   l1800 0C36                     l1490 042E                     l1482 040B  
                   l1466 03ED                     l1474 03F9                     l1394 0250  
                   l1386 0236                     l1378 021A                     l1650 0FEF  
                   l1642 0FDA                     l1626 0F7B                     l1634 0FAC  
                   l1618 0F5A                     l1570 0EC0                     l1554 0E87  
                   l1562 0EA0                     l1546 0E6C                     l1538 0E5D  
                   l1730 0688                     l1722 0608                     l1714 05C2  
                   l1706 0542                     l1298 0BA5                     l1802 0CAC  
                   l1810 0D65                     l1820 0057                     l1812 0026  
                   l1492 0432                     l1468 03F0                     l1476 03FE  
                   l1396 0256                     l1388 023C                     l1644 0FE2  
                   l1636 0FB9                     l1628 0F89                     l1580 0EDF  
                   l1572 0EC8                     l1564 0EA5                     l1556 0E93  
                   l1548 0E74                     l1740 071C                     l1732 0698  
                   l1724 0625                     l1716 05CB                     l1708 055E  
                   l1660 04A8                     l1804 0CAE                     l1830 0D83  
                   l1814 0033                     l1494 0452                     l1486 0417  
                   l1478 0401                     l1398 025E                     l1646 0FE9  
                   l1638 0FC7                     l1590 0F11                     l1582 0EF1  
                   l1574 0ED0                     l1558 0E97                     l1750 0741  
                   l1742 072A                     l1734 06C5                     l1726 063E  
                   l1718 05DB                     l1670 04BF                     l1662 04AC  
                   l1806 0CB2                     l1840 0DAE                     l1832 0D93  
                   l1824 0D6A                     l1816 0038                     l1496 0461  
                   l1488 041E                     l1648 0FED                     l1592 0F12  
                   l1584 0EF5                     l1576 0ED8                     l1568 0EAE  
                   l1760 0764                     l1744 0733                     l1752 0747  
                   l1736 06EB                     l1728 065B                     l1680 04D8  
                   l1672 04C1                     l1664 04AD                     l1656 049B  
                   l1808 0CEF                     l1850 0DE2                     l1842 0DB5  
                   l1826 0D6F                     l1818 0040                     l1498 0466  
                   l1594 0F20                     l1586 0EF6                     l1578 0EDA  
                   l1770 0783                     l1754 074B                     l1746 0737  
                   l1738 0713                     l1690 04ED                     l1682 04D9  
                   l1674 04C9                     l1666 04B2                     l1658 04A2  
                   l1860 0E15                     l1852 0DE6                     l1844 0DB9  
                   l1836 0D9C                     l1828 0D73                     l1588 0EFF  
                   l1596 0F24                     l1780 07C9                     l1772 079C  
                   l1764 076C                     l1756 074C                     l1748 0738  
                   l1692 04F5                     l1684 04DE                     l1676 04CE  
                   l1668 04B7                     l1862 0E19                     l1854 0DF0  
                   l1846 0DC7                     l1838 0DA1                     l1598 0F2A  
                   l1790 07E8                     l1782 07D3                     l1766 0771  
                   l1774 07A2                     l1758 0750                     l1694 04FA  
                   l1686 04E3                     l1678 04D4                     l1870 0060  
                   l1864 0E1A                     l1856 0DFA                     l1848 0DD7  
                   l1792 07F3                     l1784 07D5                     l1776 07AF  
                   l1768 077F                     l1696 04FF                     l1688 04EB  
                   l1880 008C                     l1872 0062                     l1858 0E10  
                   l1786 07E3                     l1778 07BA                     l1882 00D2  
                   l1874 0065                     l1788 07E7                     l1796 0BF5  
                   l1884 0118                     l1876 0066                     l1868 005C  
                   l1798 0BF9                     l1878 0079                     _ADON 00F8  
                   _CHS0 00FB                     _CHS1 00FC                     _CHS2 00FD  
                   u2000 0477                     u2001 0476                     u2010 047C  
                   u2011 047B                     u2020 0497                     u2100 0EA5  
                   u2021 0496                     u2101 0EA4                     u2110 0EDF  
                   u2030 0E34                     u2111 0EDE                     u2031 0E33  
                   u2200 0F41                     u2040 0E3A                     u2201 0F40  
                   u2041 0E39                     u2050 0E3F                     u2051 0E3E  
                   u2300 0FD6                     u2220 0F55                     u2140 0EF5  
                   u2060 0E61                     u1500 0BB0                     u2301 0FD5  
                   u2221 0F54                     u2141 0EF4                     u2125 0EE1  
                   u2061 0E60                     u1501 0BAF                     u2310 0FED  
                   u2230 0F5A                     u2070 0E67                     u2311 0FEC  
                   u2231 0F59                     u2215 0F44                     u2135 0EEA  
                   u2071 0E66                     u1600 01A8                     u2240 0F6E  
                   u2160 0F11                     u2080 0E6C                     u1440 0B4A  
                   u2320 04AC                     u1520 0BC6                     u1601 01A7  
                   u2305 0FD2                     u2241 0F6D                     u2161 0F10  
                   u2081 0E6B                     u1441 0B49                     u2401 0550  
                   u2321 04AB                     u1521 0BC5                     u1610 01B9  
                   u2250 0F75                     u2170 0F2A                     u2090 0E87  
                   u2402 0557                     u2330 04B2                     u1530 0BCD  
                   u1611 01B8                     u2251 0F74                     u2171 0F29  
                   u2155 0EF8                     u2091 0E86                     u2411 056C  
                   u2403 055E                     u2331 04B1                     u1531 0BCC  
                   u1515 0BB2                     u1700 02BD                     u1620 01C3  
                   u2260 0F7B                     u2180 0F32                     u1460 0B5E  
                   u2412 0573                     u2340 04B7                     u1701 02BC  
                   u1621 01C2                     u2261 0F7A                     u2181 0F31  
                   u2165 0F0D                     u1461 0B5D                     u2501 06A7  
                   u2421 0598                     u2413 057A                     u2341 04B6  
                   u1630 01C8                     u2270 0F8D                     u2510 06D1  
                   u2502 06AE                     u2422 059F                     u2350 04D8  
                   u1550 0BE2                     u1470 0B72                     u1631 01C7  
                   u2271 0F8C                     u1455 0B51                     u2503 06B5  
                   u2431 05B4                     u2423 05A6                     u2351 04D7  
                   u1551 0BE1                     u1471 0B71                     u1800 0350  
                   u1720 02D8                     u1640 01E8                     u2280 0F9C  
                   u2600 0750                     u2432 05BB                     u2360 04DE  
                   u1560 0BE7                     u1480 0B8D                     u1801 034F  
                   u1721 02D7                     u1641 01E7                     u2601 074F  
                   u2521 06DD                     u2433 05C2                     u2361 04DD  
                   u1561 0BE6                     u1545 0BD2                     u1730 02DC  
                   u1650 01EC                     u1570 0174                     u2290 0FB9  
                   u2610 0764                     u2530 06F9                     u2522 06E4  
                   u2370 04E3                     u1490 0BA9                     u1811 0367  
                   u1803 034C                     u1731 02DB                     u1715 02C3  
                   u1651 01EB                     u1571 0173                     u2291 0FB8  
                   u2195 0F36                     u2611 0763                     u2523 06EB  
                   u2515 06CC                     u2451 05EA                     u2371 04E2  
                   u1491 0BA8                     u1900 03FE                     u1820 037B  
                   u1812 0368                     u1740 02E1                     u1660 027E  
                   u1580 017E                     u2620 076B                     u2452 05F1  
                   u2380 04FA                     u1901 03FD                     u1821 037C  
                   u1813 036D                     u1741 02E0                     u1661 027D  
                   u1581 017D                     u2285 0F97                     u2621 076A  
                   u2541 0705                     u2461 0617                     u2453 05F8  
                   u2445 05C4                     u2381 04F9                     u1485 0B88  
                   u2710 003F                     u1910 0405                     u1830 039B  
                   u1822 0381                     u1814 036E                     u1670 0289  
                   u1590 0183                     u2630 0771                     u2542 070C  
                   u2462 061E                     u2390 04FF                     u2711 003E  
                   u1911 0404                     u1831 039A                     u1823 0382  
                   u1815 0373                     u1751 02F7                     u1671 0287  
                   u1591 0182                     u2295 0FB5                     u2631 0770  
                   u2543 0713                     u2535 06F4                     u2463 0625  
                   u2391 04FE                     u2704 0030                     u1920 040B  
                   u1840 03C3                     u1816 0374                     u1760 0309  
                   u1752 02FE                     u1680 028A                     u2640 0783  
                   u1921 040A                     u1841 03C2                     u1761 0308  
                   u1753 0305                     u1665 027A                     u2641 0782  
                   u2481 064D                     u2810 0DE6                     u2730 0D6F  
                   u1930 0416                     u1850 03CA                     u1770 030F  
                   u1690 02A8                     u2650 0792                     u2570 0737  
                   u2482 0654                     u2811 0DE5                     u2731 0D6E  
                   u1931 0415                     u1851 03C9                     u1771 030E  
                   u1691 02A7                     u2571 0736                     u2555 0715  
                   u2491 067A                     u2483 065B                     u2475 0627  
                   u2820 0DEC                     u2740 0D73                     u1940 041E  
                   u1780 0324                     u2660 07AF                     u2492 0681  
                   u2821 0DEB                     u2805 0DDB                     u2741 0D72  
                   u2725 0045                     u1941 041D                     u1781 0323  
                   u2661 07AE                     u2565 072C                     u2493 0688  
                   u2830 0DF0                     u2750 0D93                     u1950 0432  
                   u1870 03E4                     u2670 07C9                     u2590 074B  
                   u2831 0DEF                     u2751 0D92                     u1951 0431  
                   u1871 03E3                     u2671 07C8                     u2655 078D  
                   u2591 074A                     u2840 0E05                     u1960 0441  
                   u1880 03ED                     u2680 07E7                     u1881 03EC  
                   u1865 03D7                     u2681 07E6                     u2665 07AB  
                   u2585 073A                     u2850 0E15                     u2770 0DB4  
                   u2690 002D                     u1970 0452                     u1890 03F7  
                   u2851 0E14                     u2771 0DB3                     u2691 0029  
                   u1971 0451                     u1891 03F6                     u1795 032A  
                   u2675 07C5                     u2860 0E19                     u1980 0461  
                   u2861 0E18                     u2845 0E00                     u2765 0DA6  
                   u1981 0460                     u1965 043C                     u2790 0DD6  
                   u1990 0466                     u2791 0DD5                     u1991 0465  
                   u2785 0DC8                     u2877 0035                     _main 005C  
                   btemp 007E                     start 0000          ___fldiv@new_exp 0056  
          ___fltol@sign1 006E                    _ADCS0 00FE                    _ADCS1 00FF  
        __end_of___fladd 049B                    ?_main 0070          __end_of___fldiv 1000  
        __end_of___flmul 07FC          __end_of___fltol 0BF5          __end_of_readADC 005C  
                  status 0003                    wtemp0 007E          __initialization 07FC  
           __end_of_main 015B                   ??_main 007D                   _ADCON1 009F  
                 _ADRESH 001E                   _ADRESL 009E                   _CCPR1L 0015  
                 _CCPR2L 001B                   _TMR2ON 0092                   _TRISC1 0439  
                 _TRISC2 043A         __end_of___xxtofl 0E23                ??___fladd 0066  
              ??___fldiv 004C                ??___flmul 0032                ??___fltol 00A8  
              ??_readADC 0072       __size_of__Umul8_16 0027             ___xxtofl@arg 0026  
           ___xxtofl@exp 0025             ___xxtofl@val 0079  __end_of__initialization 07FC  
             ___fltol@f1 00A4           __pcstackCOMMON 0070            startPWM1@freq 00AD  
          startPWM2@freq 00AD            startPWM1@duty 00B1            startPWM2@duty 00B1  
      __end_of__Umul8_16 0B63               __pmaintext 005C                  _CCP1CON 0017  
                _CCP2CON 001D                ?___xxtofl 0079       __size_of_startPWM1 00B9  
     __size_of_startPWM2 00B9            readADC@ADCpin 0078         startPWM1@periodt 00B3  
       startPWM2@periodt 00B3                  ___fladd 015B                  ___fldiv 0E23  
                ___flmul 049B                  ___fltol 0B63                  __ptext1 0CAE  
                __ptext2 0BF5                  __ptext3 0B63                  __ptext4 049B  
                __ptext5 0B3C                  __ptext6 0E23                  __ptext7 015B  
                __ptext8 0025                  __ptext9 0D67                  _readADC 0025  
             ??___xxtofl 0020     end_of_initialization 07FC        __end_of_startPWM1 0CAE  
      __end_of_startPWM2 0D67              ___fladd@grs 00A3            ___xxtofl@sign 0024  
            ___fldiv@grs 0058              ___fldiv@rem 0051              ___flmul@grs 0038  
        _battery_current 00BF               readADC@res 0076      start_initialization 07FC  
              __Umul8_16 0B3C                ___fladd@a 0062                ___fladd@b 005E  
              ___fldiv@a 0044                ___fldiv@b 0048                ___flmul@a 002E  
              ___flmul@b 002A                ___latbits 0002            __pcstackBANK0 0020  
          __pcstackBANK1 00A0        __size_of___xxtofl 00BC                __pnvBANK1 00BB  
       _feedback_voltage 00BB                 ?___fladd 005E                 ?___fldiv 0044  
               ?___flmul 002A                 ?___fltol 00A4               ?__Umul8_16 0070  
               ?_readADC 0070                 _GO_nDONE 00FA                _startPWM1 0BF5  
              _startPWM2 0CAE              ??__Umul8_16 0072         __size_of___fladd 0340  
       __size_of___fldiv 01DD         __size_of___flmul 0361         __size_of___fltol 0092  
             ?_startPWM1 00AD               ?_startPWM2 00AD         __size_of_readADC 0037  
               ___xxtofl 0D67                 _main$673 00B7            __size_of_main 00FF  
            ??_startPWM1 007D              ??_startPWM2 007D   __Umul8_16@multiplicand 0070  
          ___fladd@signs 00A0             ___fladd@aexp 00A1             ___fladd@bexp 00A2  
   __Umul8_16@multiplier 0078        __Umul8_16@product 0074  
